; ModuleID = 'fnmatch.bc'
target datalayout = "e-i64:64-f80:128-n8:16:32:64-S128"
target triple = "x86_64-pc-linux-gnu"

%"class.std::ios_base::Init" = type { i8 }
%"class.std::basic_ostream" = type { i32 (...)**, %"class.std::basic_ios" }
%"class.std::basic_ios" = type { %"class.std::ios_base", %"class.std::basic_ostream"*, i8, i8, %"class.std::basic_streambuf"*, %"class.std::ctype"*, %"class.std::num_put"*, %"class.std::num_get"* }
%"class.std::ios_base" = type { i32 (...)**, i64, i64, i32, i32, i32, %"struct.std::ios_base::_Callback_list"*, %"struct.std::ios_base::_Words", [8 x %"struct.std::ios_base::_Words"], i32, %"struct.std::ios_base::_Words"*, %"class.std::locale" }
%"struct.std::ios_base::_Callback_list" = type { %"struct.std::ios_base::_Callback_list"*, void (i32, %"class.std::ios_base"*, i32)*, i32, i32 }
%"struct.std::ios_base::_Words" = type { i8*, i64 }
%"class.std::locale" = type { %"class.std::locale::_Impl"* }
%"class.std::locale::_Impl" = type { i32, %"class.std::locale::facet"**, i64, %"class.std::locale::facet"**, i8** }
%"class.std::locale::facet" = type { i32 (...)**, i32 }
%"class.std::basic_streambuf" = type { i32 (...)**, i8*, i8*, i8*, i8*, i8*, i8*, %"class.std::locale" }
%"class.std::ctype" = type { %"class.std::locale::facet", %struct.__locale_struct*, i8, i32*, i32*, i16*, i8, [256 x i8], [256 x i8], i8 }
%struct.__locale_struct = type { [13 x %struct.__locale_data*], i16*, i32*, i32*, [13 x i8*] }
%struct.__locale_data = type opaque
%"class.std::num_put" = type { %"class.std::locale::facet" }
%"class.std::num_get" = type { %"class.std::locale::facet" }
%"class.std::allocator.0" = type { i8 }
%"class.std::vector" = type { %"struct.std::_Vector_base" }
%"struct.std::_Vector_base" = type { %"struct.std::_Vector_base<TestCase, std::allocator<TestCase> >::_Vector_impl" }
%"struct.std::_Vector_base<TestCase, std::allocator<TestCase> >::_Vector_impl" = type { %class.TestCase*, %class.TestCase*, %class.TestCase* }
%class.TestCase = type { %"class.std::basic_string", %"class.std::basic_string", i32, i32 }
%"class.std::basic_string" = type { %"struct.std::basic_string<char, std::char_traits<char>, std::allocator<char> >::_Alloc_hider" }
%"struct.std::basic_string<char, std::char_traits<char>, std::allocator<char> >::_Alloc_hider" = type { i8* }
%"struct.std::basic_string<char, std::char_traits<char>, std::allocator<char> >::_Rep" = type { %"struct.std::basic_string<char, std::char_traits<char>, std::allocator<char> >::_Rep_base" }
%"struct.std::basic_string<char, std::char_traits<char>, std::allocator<char> >::_Rep_base" = type { i64, i64, i32 }

@_ZStL8__ioinit = internal global %"class.std::ios_base::Init" zeroinitializer, align 1
@__dso_handle = external global i8
@.str = private unnamed_addr constant [2 x i8] c"*\00", align 1
@.str1 = private unnamed_addr constant [9 x i8] c"anything\00", align 1
@.str2 = private unnamed_addr constant [6 x i8] c"*.txt\00", align 1
@.str3 = private unnamed_addr constant [11 x i8] c"readme.txt\00", align 1
@.str4 = private unnamed_addr constant [12 x i8] c"readme.info\00", align 1
@.str5 = private unnamed_addr constant [6 x i8] c"*.t?t\00", align 1
@.str6 = private unnamed_addr constant [11 x i8] c"readme.tot\00", align 1
@.str7 = private unnamed_addr constant [12 x i8] c"readme.txxt\00", align 1
@.str8 = private unnamed_addr constant [7 x i8] c"[a-g]1\00", align 1
@.str9 = private unnamed_addr constant [3 x i8] c"c1\00", align 1
@.str10 = private unnamed_addr constant [3 x i8] c"i1\00", align 1
@.str11 = private unnamed_addr constant [8 x i8] c"[!a-g]1\00", align 1
@.str12 = private unnamed_addr constant [4 x i8] c"a\5C*\00", align 1
@.str13 = private unnamed_addr constant [3 x i8] c"a*\00", align 1
@.str14 = private unnamed_addr constant [8 x i8] c"*readme\00", align 1
@.str15 = private unnamed_addr constant [12 x i8] c"/etc/readme\00", align 1
@.str16 = private unnamed_addr constant [10 x i8] c"/*/readme\00", align 1
@.str17 = private unnamed_addr constant [13 x i8] c"/etc/.readme\00", align 1
@.str18 = private unnamed_addr constant [8 x i8] c".readme\00", align 1
@.str19 = private unnamed_addr constant [9 x i8] c"*.readme\00", align 1
@.str20 = private unnamed_addr constant [11 x i8] c"/*/.readme\00", align 1
@.str21 = private unnamed_addr constant [7 x i8] c"ReAdME\00", align 1
@.str22 = private unnamed_addr constant [7 x i8] c"readme\00", align 1
@_ZSt4cout = external global %"class.std::basic_ostream"
@.str23 = private unnamed_addr constant [7 x i8] c"Pass: \00", align 1
@.str24 = private unnamed_addr constant [7 x i8] c"Fail: \00", align 1
@.str25 = private unnamed_addr constant [9 x i8] c"fnmatch(\00", align 1
@.str26 = private unnamed_addr constant [3 x i8] c", \00", align 1
@.str27 = private unnamed_addr constant [12 x i8] c") returned \00", align 1
@.str28 = private unnamed_addr constant [12 x i8] c", expected \00", align 1
@.str29 = private unnamed_addr constant [18 x i8] c"All tests passed.\00", align 1
@.str30 = private unnamed_addr constant [19 x i8] c"Some tests failed.\00", align 1
@_ZNSs4_Rep20_S_empty_rep_storageE = external global [0 x i64]
@llvm.global_ctors = appending global [1 x { i32, void ()*, i8* }] [{ i32, void ()*, i8* } { i32 65535, void ()* @_GLOBAL__I_a, i8* null }]

declare void @_ZNSt8ios_base4InitC1Ev(%"class.std::ios_base::Init"*) #0

declare void @_ZNSt8ios_base4InitD1Ev(%"class.std::ios_base::Init"*) #0

; Function Attrs: nounwind
declare i32 @__cxa_atexit(void (i8*)*, i8*, i8*) #1

; Function Attrs: nounwind uwtable
define i32 @main() #2 {
  %1 = alloca i32, align 4
  %2 = alloca %"class.std::allocator.0", align 1
  %3 = alloca i32, align 4
  %4 = alloca %"class.std::allocator.0", align 1
  %5 = alloca i32, align 4
  %6 = alloca %"class.std::allocator.0", align 1
  %7 = alloca i32, align 4
  %8 = alloca %"class.std::allocator.0", align 1
  %9 = alloca i32, align 4
  %10 = alloca %"class.std::allocator.0", align 1
  %11 = alloca i32, align 4
  %12 = alloca %"class.std::allocator.0", align 1
  %13 = alloca i32, align 4
  %14 = alloca %"class.std::allocator.0", align 1
  %15 = alloca i32, align 4
  %16 = alloca %"class.std::allocator.0", align 1
  %17 = alloca i32, align 4
  %18 = alloca %"class.std::allocator.0", align 1
  %19 = alloca i32, align 4
  %20 = alloca %"class.std::allocator.0", align 1
  %21 = alloca i32, align 4
  %22 = alloca %"class.std::allocator.0", align 1
  %23 = alloca i32, align 4
  %24 = alloca %"class.std::allocator.0", align 1
  %25 = alloca i32, align 4
  %26 = alloca %"class.std::allocator.0", align 1
  %27 = alloca i32, align 4
  %28 = alloca %"class.std::allocator.0", align 1
  %29 = alloca i32, align 4
  %30 = alloca %"class.std::allocator.0", align 1
  %31 = alloca i32, align 4
  %32 = alloca %"class.std::allocator.0", align 1
  %33 = alloca i32, align 4
  %34 = alloca %"class.std::allocator.0", align 1
  %35 = alloca i32, align 4
  %36 = alloca %"class.std::allocator.0", align 1
  %37 = alloca i32, align 4
  %38 = alloca %"class.std::allocator.0", align 1
  %39 = alloca i32, align 4
  %40 = alloca %"class.std::allocator.0", align 1
  %41 = alloca i32, align 4
  %42 = alloca %"class.std::allocator.0", align 1
  %43 = alloca i32, align 4
  %44 = alloca %"class.std::allocator.0", align 1
  %45 = alloca i32, align 4
  %46 = alloca %"class.std::allocator.0", align 1
  %47 = alloca i32, align 4
  %48 = alloca %"class.std::allocator.0", align 1
  %49 = alloca i32, align 4
  %50 = alloca %"class.std::allocator.0", align 1
  %51 = alloca i32, align 4
  %52 = alloca %"class.std::allocator.0", align 1
  %53 = alloca i32, align 4
  %54 = alloca %"class.std::allocator.0", align 1
  %55 = alloca i32, align 4
  %56 = alloca %"class.std::allocator.0", align 1
  %57 = alloca i32, align 4
  %58 = alloca %"class.std::allocator.0", align 1
  %59 = alloca i32, align 4
  %60 = alloca %"class.std::allocator.0", align 1
  %61 = alloca i32, align 4
  %62 = alloca %"class.std::allocator.0", align 1
  %63 = alloca i32, align 4
  %64 = alloca %"class.std::allocator.0", align 1
  %65 = alloca i32, align 4
  %66 = alloca %"class.std::allocator.0", align 1
  %67 = alloca i32, align 4
  %68 = alloca %"class.std::allocator.0", align 1
  %69 = alloca i32, align 4
  %70 = alloca %"class.std::allocator.0", align 1
  %71 = alloca i32, align 4
  %72 = alloca %"class.std::allocator.0", align 1
  %73 = alloca i32, align 4
  %74 = alloca %"class.std::allocator.0", align 1
  %75 = alloca i32, align 4
  %76 = alloca %"class.std::allocator.0", align 1
  %77 = alloca i32, align 4
  %78 = alloca %"class.std::allocator.0", align 1
  %79 = alloca i32, align 4
  %80 = alloca %"class.std::allocator.0", align 1
  %81 = alloca i32, align 4
  %82 = alloca %"class.std::allocator.0", align 1
  %83 = alloca i32, align 4
  %84 = alloca %"class.std::allocator.0", align 1
  %85 = alloca i32, align 4
  %86 = alloca %"class.std::allocator.0", align 1
  %87 = alloca i32, align 4
  %88 = alloca %"class.std::allocator.0", align 1
  %89 = alloca i32, align 4
  %90 = alloca %"class.std::allocator.0", align 1
  %91 = alloca i32, align 4
  %92 = alloca %"class.std::allocator.0", align 1
  %93 = alloca i32, align 4
  %94 = alloca %"class.std::allocator.0", align 1
  %95 = alloca i32, align 4
  %96 = alloca %"class.std::allocator.0", align 1
  %97 = alloca i32, align 4
  %98 = alloca %"class.std::allocator.0", align 1
  %99 = alloca i32, align 4
  %100 = alloca %"class.std::allocator.0", align 1
  %101 = alloca i32, align 4
  %102 = alloca %"class.std::allocator.0", align 1
  %103 = alloca i32, align 4
  %104 = alloca %"class.std::allocator.0", align 1
  %105 = alloca i32, align 4
  %106 = alloca %"class.std::allocator.0", align 1
  %107 = alloca i32, align 4
  %108 = alloca %"class.std::allocator.0", align 1
  %109 = alloca i32, align 4
  %110 = alloca %"class.std::allocator.0", align 1
  %111 = alloca i32, align 4
  %112 = alloca %"class.std::allocator.0", align 1
  %113 = alloca i32, align 4
  %114 = alloca %"class.std::allocator.0", align 1
  %115 = alloca i32, align 4
  %116 = alloca %"class.std::allocator.0", align 1
  %117 = alloca i32, align 4
  %118 = alloca %"class.std::allocator.0", align 1
  %119 = alloca i32, align 4
  %120 = alloca %"class.std::allocator.0", align 1
  %121 = alloca i32, align 4
  %122 = alloca %"class.std::allocator.0", align 1
  %123 = alloca i32, align 4
  %124 = alloca %"class.std::allocator.0", align 1
  %125 = alloca i32, align 4
  %126 = alloca %"class.std::allocator.0", align 1
  %127 = alloca i32, align 4
  %128 = alloca %"class.std::allocator.0", align 1
  %129 = alloca i32, align 4
  %130 = alloca %"class.std::allocator.0", align 1
  %131 = alloca i32, align 4
  %132 = alloca %"class.std::allocator.0", align 1
  %133 = alloca i32, align 4
  %134 = alloca %"class.std::allocator.0", align 1
  %135 = alloca i32, align 4
  %136 = alloca %"class.std::allocator.0", align 1
  %137 = alloca i32, align 4
  %138 = alloca %"class.std::allocator.0", align 1
  %139 = alloca i32, align 4
  %140 = alloca %"class.std::allocator.0", align 1
  %141 = alloca i32, align 4
  %142 = alloca %"class.std::allocator.0", align 1
  %143 = alloca i32, align 4
  %144 = alloca %"class.std::allocator.0", align 1
  %145 = alloca i32, align 4
  %146 = alloca %"class.std::allocator.0", align 1
  %147 = alloca i32, align 4
  %148 = alloca %"class.std::allocator.0", align 1
  %149 = alloca i32, align 4
  %150 = alloca %"class.std::allocator.0", align 1
  %151 = alloca i32, align 4
  %152 = alloca %"class.std::allocator.0", align 1
  %153 = alloca i32, align 4
  %154 = alloca %"class.std::allocator.0", align 1
  %155 = alloca i32, align 4
  %156 = alloca %"class.std::allocator.0", align 1
  %157 = alloca i32, align 4
  %158 = alloca %"class.std::allocator.0", align 1
  %159 = alloca i32, align 4
  %160 = alloca %"class.std::allocator.0", align 1
  %161 = alloca i32, align 4
  %162 = alloca %"class.std::allocator.0", align 1
  %163 = alloca i32, align 4
  %164 = alloca %"class.std::allocator.0", align 1
  %165 = alloca i32, align 4
  %166 = alloca %"class.std::allocator.0", align 1
  %167 = alloca i32, align 4
  %168 = alloca %"class.std::allocator.0", align 1
  %169 = alloca i32, align 4
  %170 = alloca %"class.std::allocator.0", align 1
  %171 = alloca i32, align 4
  %172 = alloca %"class.std::allocator.0", align 1
  %173 = alloca i32, align 4
  %174 = alloca %"class.std::allocator.0", align 1
  %175 = alloca i32, align 4
  %176 = alloca %"class.std::allocator.0", align 1
  %testCases = alloca %"class.std::vector", align 8
  %177 = alloca %class.TestCase, align 8
  %178 = alloca %"class.std::basic_string", align 8
  %179 = alloca %"class.std::allocator.0", align 1
  %180 = alloca %"class.std::basic_string", align 8
  %181 = alloca %"class.std::allocator.0", align 1
  %182 = alloca %class.TestCase, align 8
  %183 = alloca %"class.std::basic_string", align 8
  %184 = alloca %"class.std::allocator.0", align 1
  %185 = alloca %"class.std::basic_string", align 8
  %186 = alloca %"class.std::allocator.0", align 1
  %187 = alloca %class.TestCase, align 8
  %188 = alloca %"class.std::basic_string", align 8
  %189 = alloca %"class.std::allocator.0", align 1
  %190 = alloca %"class.std::basic_string", align 8
  %191 = alloca %"class.std::allocator.0", align 1
  %192 = alloca %class.TestCase, align 8
  %193 = alloca %"class.std::basic_string", align 8
  %194 = alloca %"class.std::allocator.0", align 1
  %195 = alloca %"class.std::basic_string", align 8
  %196 = alloca %"class.std::allocator.0", align 1
  %197 = alloca %class.TestCase, align 8
  %198 = alloca %"class.std::basic_string", align 8
  %199 = alloca %"class.std::allocator.0", align 1
  %200 = alloca %"class.std::basic_string", align 8
  %201 = alloca %"class.std::allocator.0", align 1
  %202 = alloca %class.TestCase, align 8
  %203 = alloca %"class.std::basic_string", align 8
  %204 = alloca %"class.std::allocator.0", align 1
  %205 = alloca %"class.std::basic_string", align 8
  %206 = alloca %"class.std::allocator.0", align 1
  %207 = alloca %class.TestCase, align 8
  %208 = alloca %"class.std::basic_string", align 8
  %209 = alloca %"class.std::allocator.0", align 1
  %210 = alloca %"class.std::basic_string", align 8
  %211 = alloca %"class.std::allocator.0", align 1
  %212 = alloca %class.TestCase, align 8
  %213 = alloca %"class.std::basic_string", align 8
  %214 = alloca %"class.std::allocator.0", align 1
  %215 = alloca %"class.std::basic_string", align 8
  %216 = alloca %"class.std::allocator.0", align 1
  %217 = alloca %class.TestCase, align 8
  %218 = alloca %"class.std::basic_string", align 8
  %219 = alloca %"class.std::allocator.0", align 1
  %220 = alloca %"class.std::basic_string", align 8
  %221 = alloca %"class.std::allocator.0", align 1
  %222 = alloca %class.TestCase, align 8
  %223 = alloca %"class.std::basic_string", align 8
  %224 = alloca %"class.std::allocator.0", align 1
  %225 = alloca %"class.std::basic_string", align 8
  %226 = alloca %"class.std::allocator.0", align 1
  %227 = alloca %class.TestCase, align 8
  %228 = alloca %"class.std::basic_string", align 8
  %229 = alloca %"class.std::allocator.0", align 1
  %230 = alloca %"class.std::basic_string", align 8
  %231 = alloca %"class.std::allocator.0", align 1
  %232 = alloca %class.TestCase, align 8
  %233 = alloca %"class.std::basic_string", align 8
  %234 = alloca %"class.std::allocator.0", align 1
  %235 = alloca %"class.std::basic_string", align 8
  %236 = alloca %"class.std::allocator.0", align 1
  %237 = alloca %class.TestCase, align 8
  %238 = alloca %"class.std::basic_string", align 8
  %239 = alloca %"class.std::allocator.0", align 1
  %240 = alloca %"class.std::basic_string", align 8
  %241 = alloca %"class.std::allocator.0", align 1
  %242 = alloca %class.TestCase, align 8
  %243 = alloca %"class.std::basic_string", align 8
  %244 = alloca %"class.std::allocator.0", align 1
  %245 = alloca %"class.std::basic_string", align 8
  %246 = alloca %"class.std::allocator.0", align 1
  %247 = alloca %class.TestCase, align 8
  %248 = alloca %"class.std::basic_string", align 8
  %249 = alloca %"class.std::allocator.0", align 1
  %250 = alloca %"class.std::basic_string", align 8
  %251 = alloca %"class.std::allocator.0", align 1
  %252 = alloca %class.TestCase, align 8
  %253 = alloca %"class.std::basic_string", align 8
  %254 = alloca %"class.std::allocator.0", align 1
  %255 = alloca %"class.std::basic_string", align 8
  %256 = alloca %"class.std::allocator.0", align 1
  %257 = alloca %class.TestCase, align 8
  %258 = alloca %"class.std::basic_string", align 8
  %259 = alloca %"class.std::allocator.0", align 1
  %260 = alloca %"class.std::basic_string", align 8
  %261 = alloca %"class.std::allocator.0", align 1
  %262 = alloca %class.TestCase, align 8
  %263 = alloca %"class.std::basic_string", align 8
  %264 = alloca %"class.std::allocator.0", align 1
  %265 = alloca %"class.std::basic_string", align 8
  %266 = alloca %"class.std::allocator.0", align 1
  %267 = alloca %class.TestCase, align 8
  %268 = alloca %"class.std::basic_string", align 8
  %269 = alloca %"class.std::allocator.0", align 1
  %270 = alloca %"class.std::basic_string", align 8
  %271 = alloca %"class.std::allocator.0", align 1
  %272 = alloca %class.TestCase, align 8
  %273 = alloca %"class.std::basic_string", align 8
  %274 = alloca %"class.std::allocator.0", align 1
  %275 = alloca %"class.std::basic_string", align 8
  %276 = alloca %"class.std::allocator.0", align 1
  %277 = alloca %class.TestCase, align 8
  %278 = alloca %"class.std::basic_string", align 8
  %279 = alloca %"class.std::allocator.0", align 1
  %280 = alloca %"class.std::basic_string", align 8
  %281 = alloca %"class.std::allocator.0", align 1
  %282 = alloca %class.TestCase, align 8
  %283 = alloca %"class.std::basic_string", align 8
  %284 = alloca %"class.std::allocator.0", align 1
  %285 = alloca %"class.std::basic_string", align 8
  %286 = alloca %"class.std::allocator.0", align 1
  %287 = bitcast %"class.std::vector"* %testCases to i8*
  call void @llvm.memset.p0i8.i64(i8* %287, i8 0, i64 24, i32 8, i1 false) #1
  call void @_ZNSsC1EPKcRKSaIcE(%"class.std::basic_string"* %178, i8* getelementptr inbounds ([2 x i8]* @.str, i64 0, i64 0), %"class.std::allocator.0"* %179) #1
  call void @_ZNSsC1EPKcRKSaIcE(%"class.std::basic_string"* %180, i8* getelementptr inbounds ([9 x i8]* @.str1, i64 0, i64 0), %"class.std::allocator.0"* %181) #1
  %288 = getelementptr inbounds %class.TestCase* %177, i64 0, i32 0
  call void @_ZNSsC1ERKSs(%"class.std::basic_string"* %288, %"class.std::basic_string"* %178) #1
  %289 = getelementptr inbounds %class.TestCase* %177, i64 0, i32 1
  call void @_ZNSsC1ERKSs(%"class.std::basic_string"* %289, %"class.std::basic_string"* %180) #1
  %290 = getelementptr inbounds %class.TestCase* %177, i64 0, i32 2
  store i32 0, i32* %290, align 8, !tbaa !1
  %291 = getelementptr inbounds %class.TestCase* %177, i64 0, i32 3
  store i32 0, i32* %291, align 4, !tbaa !9
  %292 = getelementptr inbounds %"class.std::vector"* %testCases, i64 0, i32 0, i32 0, i32 1
  %293 = load %class.TestCase** %292, align 8, !tbaa !10
  %294 = getelementptr inbounds %"class.std::vector"* %testCases, i64 0, i32 0, i32 0, i32 2
  %295 = load %class.TestCase** %294, align 8, !tbaa !13
  %296 = icmp eq %class.TestCase* %293, %295
  br i1 %296, label %308, label %297

; <label>:297                                     ; preds = %0
  %298 = icmp eq %class.TestCase* %293, null
  br i1 %298, label %_ZN9__gnu_cxx14__alloc_traitsISaI8TestCaseEE9constructIS1_EEvRS2_PS1_RKT_.exit.i, label %299

; <label>:299                                     ; preds = %297
  %300 = getelementptr inbounds %class.TestCase* %293, i64 0, i32 0
  call void @_ZNSsC1ERKSs(%"class.std::basic_string"* %300, %"class.std::basic_string"* %288) #1
  %301 = getelementptr inbounds %class.TestCase* %293, i64 0, i32 1
  call void @_ZNSsC1ERKSs(%"class.std::basic_string"* %301, %"class.std::basic_string"* %289) #1
  %302 = getelementptr inbounds %class.TestCase* %293, i64 0, i32 2
  %303 = bitcast i32* %290 to i64*
  %304 = bitcast i32* %302 to i64*
  %305 = load i64* %303, align 8
  store i64 %305, i64* %304, align 4
  %.pre.i = load %class.TestCase** %292, align 8, !tbaa !10
  br label %_ZN9__gnu_cxx14__alloc_traitsISaI8TestCaseEE9constructIS1_EEvRS2_PS1_RKT_.exit.i

_ZN9__gnu_cxx14__alloc_traitsISaI8TestCaseEE9constructIS1_EEvRS2_PS1_RKT_.exit.i: ; preds = %299, %297
  %306 = phi %class.TestCase* [ null, %297 ], [ %.pre.i, %299 ]
  %307 = getelementptr inbounds %class.TestCase* %306, i64 1
  store %class.TestCase* %307, %class.TestCase** %292, align 8, !tbaa !10
  br label %_ZNSt6vectorI8TestCaseSaIS0_EE9push_backERKS0_.exit

; <label>:308                                     ; preds = %0
  call void @_ZNSt6vectorI8TestCaseSaIS0_EE13_M_insert_auxEN9__gnu_cxx17__normal_iteratorIPS0_S2_EERKS0_(%"class.std::vector"* %testCases, %class.TestCase* %293, %class.TestCase* %177) #1
  br label %_ZNSt6vectorI8TestCaseSaIS0_EE9push_backERKS0_.exit

_ZNSt6vectorI8TestCaseSaIS0_EE9push_backERKS0_.exit: ; preds = %308, %_ZN9__gnu_cxx14__alloc_traitsISaI8TestCaseEE9constructIS1_EEvRS2_PS1_RKT_.exit.i
  %309 = getelementptr inbounds %"class.std::allocator.0"* %176, i64 0, i32 0
  call void @llvm.lifetime.start(i64 1, i8* %309) #1
  %310 = getelementptr inbounds %class.TestCase* %177, i64 0, i32 1, i32 0, i32 0
  %311 = load i8** %310, align 8, !tbaa !14
  %312 = getelementptr inbounds i8* %311, i64 -24
  %313 = bitcast i8* %312 to %"struct.std::basic_string<char, std::char_traits<char>, std::allocator<char> >::_Rep"*
  %314 = icmp eq i8* %312, bitcast ([0 x i64]* @_ZNSs4_Rep20_S_empty_rep_storageE to i8*)
  br i1 %314, label %_ZNSsD1Ev.exit.i, label %315, !prof !15

; <label>:315                                     ; preds = %_ZNSt6vectorI8TestCaseSaIS0_EE9push_backERKS0_.exit
  %316 = getelementptr inbounds i8* %311, i64 -8
  %317 = bitcast i8* %316 to i32*
  br i1 icmp ne (i8* bitcast (i32 (i32*, void (i8*)*)* @__pthread_key_create to i8*), i8* null), label %318, label %322

; <label>:318                                     ; preds = %315
  %319 = bitcast i32* %175 to i8*
  call void @llvm.lifetime.start(i64 4, i8* %319)
  %320 = atomicrmw volatile add i32* %317, i32 -1 acq_rel
  store i32 %320, i32* %175, align 4
  %321 = load volatile i32* %175, align 4
  call void @llvm.lifetime.end(i64 4, i8* %319)
  br label %_ZN9__gnu_cxxL27__exchange_and_add_dispatchEPii.exit.i.i.i.i

; <label>:322                                     ; preds = %315
  %323 = load i32* %317, align 4, !tbaa !16
  %324 = add nsw i32 %323, -1
  store i32 %324, i32* %317, align 4, !tbaa !16
  br label %_ZN9__gnu_cxxL27__exchange_and_add_dispatchEPii.exit.i.i.i.i

_ZN9__gnu_cxxL27__exchange_and_add_dispatchEPii.exit.i.i.i.i: ; preds = %322, %318
  %.0.i.i.i.i.i = phi i32 [ %321, %318 ], [ %323, %322 ]
  %325 = icmp slt i32 %.0.i.i.i.i.i, 1
  br i1 %325, label %326, label %_ZNSsD1Ev.exit.i

; <label>:326                                     ; preds = %_ZN9__gnu_cxxL27__exchange_and_add_dispatchEPii.exit.i.i.i.i
  call void @_ZNSs4_Rep10_M_destroyERKSaIcE(%"struct.std::basic_string<char, std::char_traits<char>, std::allocator<char> >::_Rep"* %313, %"class.std::allocator.0"* %176) #1
  br label %_ZNSsD1Ev.exit.i

_ZNSsD1Ev.exit.i:                                 ; preds = %326, %_ZN9__gnu_cxxL27__exchange_and_add_dispatchEPii.exit.i.i.i.i, %_ZNSt6vectorI8TestCaseSaIS0_EE9push_backERKS0_.exit
  call void @llvm.lifetime.end(i64 1, i8* %309) #1
  %327 = getelementptr inbounds %"class.std::allocator.0"* %174, i64 0, i32 0
  call void @llvm.lifetime.start(i64 1, i8* %327) #1
  %328 = getelementptr inbounds %class.TestCase* %177, i64 0, i32 0, i32 0, i32 0
  %329 = load i8** %328, align 8, !tbaa !14
  %330 = getelementptr inbounds i8* %329, i64 -24
  %331 = bitcast i8* %330 to %"struct.std::basic_string<char, std::char_traits<char>, std::allocator<char> >::_Rep"*
  %332 = icmp eq i8* %330, bitcast ([0 x i64]* @_ZNSs4_Rep20_S_empty_rep_storageE to i8*)
  br i1 %332, label %_ZN8TestCaseD2Ev.exit, label %333, !prof !15

; <label>:333                                     ; preds = %_ZNSsD1Ev.exit.i
  %334 = getelementptr inbounds i8* %329, i64 -8
  %335 = bitcast i8* %334 to i32*
  br i1 icmp ne (i8* bitcast (i32 (i32*, void (i8*)*)* @__pthread_key_create to i8*), i8* null), label %336, label %340

; <label>:336                                     ; preds = %333
  %337 = bitcast i32* %173 to i8*
  call void @llvm.lifetime.start(i64 4, i8* %337)
  %338 = atomicrmw volatile add i32* %335, i32 -1 acq_rel
  store i32 %338, i32* %173, align 4
  %339 = load volatile i32* %173, align 4
  call void @llvm.lifetime.end(i64 4, i8* %337)
  br label %_ZN9__gnu_cxxL27__exchange_and_add_dispatchEPii.exit.i.i.i2.i

; <label>:340                                     ; preds = %333
  %341 = load i32* %335, align 4, !tbaa !16
  %342 = add nsw i32 %341, -1
  store i32 %342, i32* %335, align 4, !tbaa !16
  br label %_ZN9__gnu_cxxL27__exchange_and_add_dispatchEPii.exit.i.i.i2.i

_ZN9__gnu_cxxL27__exchange_and_add_dispatchEPii.exit.i.i.i2.i: ; preds = %340, %336
  %.0.i.i.i.i1.i = phi i32 [ %339, %336 ], [ %341, %340 ]
  %343 = icmp slt i32 %.0.i.i.i.i1.i, 1
  br i1 %343, label %344, label %_ZN8TestCaseD2Ev.exit

; <label>:344                                     ; preds = %_ZN9__gnu_cxxL27__exchange_and_add_dispatchEPii.exit.i.i.i2.i
  call void @_ZNSs4_Rep10_M_destroyERKSaIcE(%"struct.std::basic_string<char, std::char_traits<char>, std::allocator<char> >::_Rep"* %331, %"class.std::allocator.0"* %174) #1
  br label %_ZN8TestCaseD2Ev.exit

_ZN8TestCaseD2Ev.exit:                            ; preds = %344, %_ZN9__gnu_cxxL27__exchange_and_add_dispatchEPii.exit.i.i.i2.i, %_ZNSsD1Ev.exit.i
  call void @llvm.lifetime.end(i64 1, i8* %327) #1
  %345 = getelementptr inbounds %"class.std::allocator.0"* %172, i64 0, i32 0
  call void @llvm.lifetime.start(i64 1, i8* %345) #1
  %346 = getelementptr inbounds %"class.std::basic_string"* %180, i64 0, i32 0, i32 0
  %347 = load i8** %346, align 8, !tbaa !14
  %348 = getelementptr inbounds i8* %347, i64 -24
  %349 = bitcast i8* %348 to %"struct.std::basic_string<char, std::char_traits<char>, std::allocator<char> >::_Rep"*
  %350 = icmp eq i8* %348, bitcast ([0 x i64]* @_ZNSs4_Rep20_S_empty_rep_storageE to i8*)
  br i1 %350, label %_ZNSsD1Ev.exit, label %351, !prof !15

; <label>:351                                     ; preds = %_ZN8TestCaseD2Ev.exit
  %352 = getelementptr inbounds i8* %347, i64 -8
  %353 = bitcast i8* %352 to i32*
  br i1 icmp ne (i8* bitcast (i32 (i32*, void (i8*)*)* @__pthread_key_create to i8*), i8* null), label %354, label %358

; <label>:354                                     ; preds = %351
  %355 = bitcast i32* %171 to i8*
  call void @llvm.lifetime.start(i64 4, i8* %355)
  %356 = atomicrmw volatile add i32* %353, i32 -1 acq_rel
  store i32 %356, i32* %171, align 4
  %357 = load volatile i32* %171, align 4
  call void @llvm.lifetime.end(i64 4, i8* %355)
  br label %_ZN9__gnu_cxxL27__exchange_and_add_dispatchEPii.exit.i.i.i

; <label>:358                                     ; preds = %351
  %359 = load i32* %353, align 4, !tbaa !16
  %360 = add nsw i32 %359, -1
  store i32 %360, i32* %353, align 4, !tbaa !16
  br label %_ZN9__gnu_cxxL27__exchange_and_add_dispatchEPii.exit.i.i.i

_ZN9__gnu_cxxL27__exchange_and_add_dispatchEPii.exit.i.i.i: ; preds = %358, %354
  %.0.i.i.i.i = phi i32 [ %357, %354 ], [ %359, %358 ]
  %361 = icmp slt i32 %.0.i.i.i.i, 1
  br i1 %361, label %362, label %_ZNSsD1Ev.exit

; <label>:362                                     ; preds = %_ZN9__gnu_cxxL27__exchange_and_add_dispatchEPii.exit.i.i.i
  call void @_ZNSs4_Rep10_M_destroyERKSaIcE(%"struct.std::basic_string<char, std::char_traits<char>, std::allocator<char> >::_Rep"* %349, %"class.std::allocator.0"* %172) #1
  br label %_ZNSsD1Ev.exit

_ZNSsD1Ev.exit:                                   ; preds = %362, %_ZN9__gnu_cxxL27__exchange_and_add_dispatchEPii.exit.i.i.i, %_ZN8TestCaseD2Ev.exit
  call void @llvm.lifetime.end(i64 1, i8* %345) #1
  %363 = getelementptr inbounds %"class.std::allocator.0"* %170, i64 0, i32 0
  call void @llvm.lifetime.start(i64 1, i8* %363) #1
  %364 = getelementptr inbounds %"class.std::basic_string"* %178, i64 0, i32 0, i32 0
  %365 = load i8** %364, align 8, !tbaa !14
  %366 = getelementptr inbounds i8* %365, i64 -24
  %367 = bitcast i8* %366 to %"struct.std::basic_string<char, std::char_traits<char>, std::allocator<char> >::_Rep"*
  %368 = icmp eq i8* %366, bitcast ([0 x i64]* @_ZNSs4_Rep20_S_empty_rep_storageE to i8*)
  br i1 %368, label %_ZNSsD1Ev.exit3, label %369, !prof !15

; <label>:369                                     ; preds = %_ZNSsD1Ev.exit
  %370 = getelementptr inbounds i8* %365, i64 -8
  %371 = bitcast i8* %370 to i32*
  br i1 icmp ne (i8* bitcast (i32 (i32*, void (i8*)*)* @__pthread_key_create to i8*), i8* null), label %372, label %376

; <label>:372                                     ; preds = %369
  %373 = bitcast i32* %169 to i8*
  call void @llvm.lifetime.start(i64 4, i8* %373)
  %374 = atomicrmw volatile add i32* %371, i32 -1 acq_rel
  store i32 %374, i32* %169, align 4
  %375 = load volatile i32* %169, align 4
  call void @llvm.lifetime.end(i64 4, i8* %373)
  br label %_ZN9__gnu_cxxL27__exchange_and_add_dispatchEPii.exit.i.i.i2

; <label>:376                                     ; preds = %369
  %377 = load i32* %371, align 4, !tbaa !16
  %378 = add nsw i32 %377, -1
  store i32 %378, i32* %371, align 4, !tbaa !16
  br label %_ZN9__gnu_cxxL27__exchange_and_add_dispatchEPii.exit.i.i.i2

_ZN9__gnu_cxxL27__exchange_and_add_dispatchEPii.exit.i.i.i2: ; preds = %376, %372
  %.0.i.i.i.i1 = phi i32 [ %375, %372 ], [ %377, %376 ]
  %379 = icmp slt i32 %.0.i.i.i.i1, 1
  br i1 %379, label %380, label %_ZNSsD1Ev.exit3

; <label>:380                                     ; preds = %_ZN9__gnu_cxxL27__exchange_and_add_dispatchEPii.exit.i.i.i2
  call void @_ZNSs4_Rep10_M_destroyERKSaIcE(%"struct.std::basic_string<char, std::char_traits<char>, std::allocator<char> >::_Rep"* %367, %"class.std::allocator.0"* %170) #1
  br label %_ZNSsD1Ev.exit3

_ZNSsD1Ev.exit3:                                  ; preds = %380, %_ZN9__gnu_cxxL27__exchange_and_add_dispatchEPii.exit.i.i.i2, %_ZNSsD1Ev.exit
  call void @llvm.lifetime.end(i64 1, i8* %363) #1
  call void @_ZNSsC1EPKcRKSaIcE(%"class.std::basic_string"* %183, i8* getelementptr inbounds ([6 x i8]* @.str2, i64 0, i64 0), %"class.std::allocator.0"* %184) #1
  call void @_ZNSsC1EPKcRKSaIcE(%"class.std::basic_string"* %185, i8* getelementptr inbounds ([11 x i8]* @.str3, i64 0, i64 0), %"class.std::allocator.0"* %186) #1
  %381 = getelementptr inbounds %class.TestCase* %182, i64 0, i32 0
  call void @_ZNSsC1ERKSs(%"class.std::basic_string"* %381, %"class.std::basic_string"* %183) #1
  %382 = getelementptr inbounds %class.TestCase* %182, i64 0, i32 1
  call void @_ZNSsC1ERKSs(%"class.std::basic_string"* %382, %"class.std::basic_string"* %185) #1
  %383 = getelementptr inbounds %class.TestCase* %182, i64 0, i32 2
  store i32 0, i32* %383, align 8, !tbaa !1
  %384 = getelementptr inbounds %class.TestCase* %182, i64 0, i32 3
  store i32 0, i32* %384, align 4, !tbaa !9
  %385 = load %class.TestCase** %292, align 8, !tbaa !10
  %386 = load %class.TestCase** %294, align 8, !tbaa !13
  %387 = icmp eq %class.TestCase* %385, %386
  br i1 %387, label %399, label %388

; <label>:388                                     ; preds = %_ZNSsD1Ev.exit3
  %389 = icmp eq %class.TestCase* %385, null
  br i1 %389, label %_ZN9__gnu_cxx14__alloc_traitsISaI8TestCaseEE9constructIS1_EEvRS2_PS1_RKT_.exit.i5, label %390

; <label>:390                                     ; preds = %388
  %391 = getelementptr inbounds %class.TestCase* %385, i64 0, i32 0
  call void @_ZNSsC1ERKSs(%"class.std::basic_string"* %391, %"class.std::basic_string"* %381) #1
  %392 = getelementptr inbounds %class.TestCase* %385, i64 0, i32 1
  call void @_ZNSsC1ERKSs(%"class.std::basic_string"* %392, %"class.std::basic_string"* %382) #1
  %393 = getelementptr inbounds %class.TestCase* %385, i64 0, i32 2
  %394 = bitcast i32* %383 to i64*
  %395 = bitcast i32* %393 to i64*
  %396 = load i64* %394, align 8
  store i64 %396, i64* %395, align 4
  %.pre.i4 = load %class.TestCase** %292, align 8, !tbaa !10
  br label %_ZN9__gnu_cxx14__alloc_traitsISaI8TestCaseEE9constructIS1_EEvRS2_PS1_RKT_.exit.i5

_ZN9__gnu_cxx14__alloc_traitsISaI8TestCaseEE9constructIS1_EEvRS2_PS1_RKT_.exit.i5: ; preds = %390, %388
  %397 = phi %class.TestCase* [ null, %388 ], [ %.pre.i4, %390 ]
  %398 = getelementptr inbounds %class.TestCase* %397, i64 1
  store %class.TestCase* %398, %class.TestCase** %292, align 8, !tbaa !10
  br label %_ZNSt6vectorI8TestCaseSaIS0_EE9push_backERKS0_.exit6

; <label>:399                                     ; preds = %_ZNSsD1Ev.exit3
  call void @_ZNSt6vectorI8TestCaseSaIS0_EE13_M_insert_auxEN9__gnu_cxx17__normal_iteratorIPS0_S2_EERKS0_(%"class.std::vector"* %testCases, %class.TestCase* %385, %class.TestCase* %182) #1
  br label %_ZNSt6vectorI8TestCaseSaIS0_EE9push_backERKS0_.exit6

_ZNSt6vectorI8TestCaseSaIS0_EE9push_backERKS0_.exit6: ; preds = %399, %_ZN9__gnu_cxx14__alloc_traitsISaI8TestCaseEE9constructIS1_EEvRS2_PS1_RKT_.exit.i5
  %400 = getelementptr inbounds %"class.std::allocator.0"* %168, i64 0, i32 0
  call void @llvm.lifetime.start(i64 1, i8* %400) #1
  %401 = getelementptr inbounds %class.TestCase* %182, i64 0, i32 1, i32 0, i32 0
  %402 = load i8** %401, align 8, !tbaa !14
  %403 = getelementptr inbounds i8* %402, i64 -24
  %404 = bitcast i8* %403 to %"struct.std::basic_string<char, std::char_traits<char>, std::allocator<char> >::_Rep"*
  %405 = icmp eq i8* %403, bitcast ([0 x i64]* @_ZNSs4_Rep20_S_empty_rep_storageE to i8*)
  br i1 %405, label %_ZNSsD1Ev.exit.i9, label %406, !prof !15

; <label>:406                                     ; preds = %_ZNSt6vectorI8TestCaseSaIS0_EE9push_backERKS0_.exit6
  %407 = getelementptr inbounds i8* %402, i64 -8
  %408 = bitcast i8* %407 to i32*
  br i1 icmp ne (i8* bitcast (i32 (i32*, void (i8*)*)* @__pthread_key_create to i8*), i8* null), label %409, label %413

; <label>:409                                     ; preds = %406
  %410 = bitcast i32* %167 to i8*
  call void @llvm.lifetime.start(i64 4, i8* %410)
  %411 = atomicrmw volatile add i32* %408, i32 -1 acq_rel
  store i32 %411, i32* %167, align 4
  %412 = load volatile i32* %167, align 4
  call void @llvm.lifetime.end(i64 4, i8* %410)
  br label %_ZN9__gnu_cxxL27__exchange_and_add_dispatchEPii.exit.i.i.i.i8

; <label>:413                                     ; preds = %406
  %414 = load i32* %408, align 4, !tbaa !16
  %415 = add nsw i32 %414, -1
  store i32 %415, i32* %408, align 4, !tbaa !16
  br label %_ZN9__gnu_cxxL27__exchange_and_add_dispatchEPii.exit.i.i.i.i8

_ZN9__gnu_cxxL27__exchange_and_add_dispatchEPii.exit.i.i.i.i8: ; preds = %413, %409
  %.0.i.i.i.i.i7 = phi i32 [ %412, %409 ], [ %414, %413 ]
  %416 = icmp slt i32 %.0.i.i.i.i.i7, 1
  br i1 %416, label %417, label %_ZNSsD1Ev.exit.i9

; <label>:417                                     ; preds = %_ZN9__gnu_cxxL27__exchange_and_add_dispatchEPii.exit.i.i.i.i8
  call void @_ZNSs4_Rep10_M_destroyERKSaIcE(%"struct.std::basic_string<char, std::char_traits<char>, std::allocator<char> >::_Rep"* %404, %"class.std::allocator.0"* %168) #1
  br label %_ZNSsD1Ev.exit.i9

_ZNSsD1Ev.exit.i9:                                ; preds = %417, %_ZN9__gnu_cxxL27__exchange_and_add_dispatchEPii.exit.i.i.i.i8, %_ZNSt6vectorI8TestCaseSaIS0_EE9push_backERKS0_.exit6
  call void @llvm.lifetime.end(i64 1, i8* %400) #1
  %418 = getelementptr inbounds %"class.std::allocator.0"* %166, i64 0, i32 0
  call void @llvm.lifetime.start(i64 1, i8* %418) #1
  %419 = getelementptr inbounds %class.TestCase* %182, i64 0, i32 0, i32 0, i32 0
  %420 = load i8** %419, align 8, !tbaa !14
  %421 = getelementptr inbounds i8* %420, i64 -24
  %422 = bitcast i8* %421 to %"struct.std::basic_string<char, std::char_traits<char>, std::allocator<char> >::_Rep"*
  %423 = icmp eq i8* %421, bitcast ([0 x i64]* @_ZNSs4_Rep20_S_empty_rep_storageE to i8*)
  br i1 %423, label %_ZN8TestCaseD2Ev.exit12, label %424, !prof !15

; <label>:424                                     ; preds = %_ZNSsD1Ev.exit.i9
  %425 = getelementptr inbounds i8* %420, i64 -8
  %426 = bitcast i8* %425 to i32*
  br i1 icmp ne (i8* bitcast (i32 (i32*, void (i8*)*)* @__pthread_key_create to i8*), i8* null), label %427, label %431

; <label>:427                                     ; preds = %424
  %428 = bitcast i32* %165 to i8*
  call void @llvm.lifetime.start(i64 4, i8* %428)
  %429 = atomicrmw volatile add i32* %426, i32 -1 acq_rel
  store i32 %429, i32* %165, align 4
  %430 = load volatile i32* %165, align 4
  call void @llvm.lifetime.end(i64 4, i8* %428)
  br label %_ZN9__gnu_cxxL27__exchange_and_add_dispatchEPii.exit.i.i.i2.i11

; <label>:431                                     ; preds = %424
  %432 = load i32* %426, align 4, !tbaa !16
  %433 = add nsw i32 %432, -1
  store i32 %433, i32* %426, align 4, !tbaa !16
  br label %_ZN9__gnu_cxxL27__exchange_and_add_dispatchEPii.exit.i.i.i2.i11

_ZN9__gnu_cxxL27__exchange_and_add_dispatchEPii.exit.i.i.i2.i11: ; preds = %431, %427
  %.0.i.i.i.i1.i10 = phi i32 [ %430, %427 ], [ %432, %431 ]
  %434 = icmp slt i32 %.0.i.i.i.i1.i10, 1
  br i1 %434, label %435, label %_ZN8TestCaseD2Ev.exit12

; <label>:435                                     ; preds = %_ZN9__gnu_cxxL27__exchange_and_add_dispatchEPii.exit.i.i.i2.i11
  call void @_ZNSs4_Rep10_M_destroyERKSaIcE(%"struct.std::basic_string<char, std::char_traits<char>, std::allocator<char> >::_Rep"* %422, %"class.std::allocator.0"* %166) #1
  br label %_ZN8TestCaseD2Ev.exit12

_ZN8TestCaseD2Ev.exit12:                          ; preds = %435, %_ZN9__gnu_cxxL27__exchange_and_add_dispatchEPii.exit.i.i.i2.i11, %_ZNSsD1Ev.exit.i9
  call void @llvm.lifetime.end(i64 1, i8* %418) #1
  %436 = getelementptr inbounds %"class.std::allocator.0"* %164, i64 0, i32 0
  call void @llvm.lifetime.start(i64 1, i8* %436) #1
  %437 = getelementptr inbounds %"class.std::basic_string"* %185, i64 0, i32 0, i32 0
  %438 = load i8** %437, align 8, !tbaa !14
  %439 = getelementptr inbounds i8* %438, i64 -24
  %440 = bitcast i8* %439 to %"struct.std::basic_string<char, std::char_traits<char>, std::allocator<char> >::_Rep"*
  %441 = icmp eq i8* %439, bitcast ([0 x i64]* @_ZNSs4_Rep20_S_empty_rep_storageE to i8*)
  br i1 %441, label %_ZNSsD1Ev.exit15, label %442, !prof !15

; <label>:442                                     ; preds = %_ZN8TestCaseD2Ev.exit12
  %443 = getelementptr inbounds i8* %438, i64 -8
  %444 = bitcast i8* %443 to i32*
  br i1 icmp ne (i8* bitcast (i32 (i32*, void (i8*)*)* @__pthread_key_create to i8*), i8* null), label %445, label %449

; <label>:445                                     ; preds = %442
  %446 = bitcast i32* %163 to i8*
  call void @llvm.lifetime.start(i64 4, i8* %446)
  %447 = atomicrmw volatile add i32* %444, i32 -1 acq_rel
  store i32 %447, i32* %163, align 4
  %448 = load volatile i32* %163, align 4
  call void @llvm.lifetime.end(i64 4, i8* %446)
  br label %_ZN9__gnu_cxxL27__exchange_and_add_dispatchEPii.exit.i.i.i14

; <label>:449                                     ; preds = %442
  %450 = load i32* %444, align 4, !tbaa !16
  %451 = add nsw i32 %450, -1
  store i32 %451, i32* %444, align 4, !tbaa !16
  br label %_ZN9__gnu_cxxL27__exchange_and_add_dispatchEPii.exit.i.i.i14

_ZN9__gnu_cxxL27__exchange_and_add_dispatchEPii.exit.i.i.i14: ; preds = %449, %445
  %.0.i.i.i.i13 = phi i32 [ %448, %445 ], [ %450, %449 ]
  %452 = icmp slt i32 %.0.i.i.i.i13, 1
  br i1 %452, label %453, label %_ZNSsD1Ev.exit15

; <label>:453                                     ; preds = %_ZN9__gnu_cxxL27__exchange_and_add_dispatchEPii.exit.i.i.i14
  call void @_ZNSs4_Rep10_M_destroyERKSaIcE(%"struct.std::basic_string<char, std::char_traits<char>, std::allocator<char> >::_Rep"* %440, %"class.std::allocator.0"* %164) #1
  br label %_ZNSsD1Ev.exit15

_ZNSsD1Ev.exit15:                                 ; preds = %453, %_ZN9__gnu_cxxL27__exchange_and_add_dispatchEPii.exit.i.i.i14, %_ZN8TestCaseD2Ev.exit12
  call void @llvm.lifetime.end(i64 1, i8* %436) #1
  %454 = getelementptr inbounds %"class.std::allocator.0"* %162, i64 0, i32 0
  call void @llvm.lifetime.start(i64 1, i8* %454) #1
  %455 = getelementptr inbounds %"class.std::basic_string"* %183, i64 0, i32 0, i32 0
  %456 = load i8** %455, align 8, !tbaa !14
  %457 = getelementptr inbounds i8* %456, i64 -24
  %458 = bitcast i8* %457 to %"struct.std::basic_string<char, std::char_traits<char>, std::allocator<char> >::_Rep"*
  %459 = icmp eq i8* %457, bitcast ([0 x i64]* @_ZNSs4_Rep20_S_empty_rep_storageE to i8*)
  br i1 %459, label %_ZNSsD1Ev.exit18, label %460, !prof !15

; <label>:460                                     ; preds = %_ZNSsD1Ev.exit15
  %461 = getelementptr inbounds i8* %456, i64 -8
  %462 = bitcast i8* %461 to i32*
  br i1 icmp ne (i8* bitcast (i32 (i32*, void (i8*)*)* @__pthread_key_create to i8*), i8* null), label %463, label %467

; <label>:463                                     ; preds = %460
  %464 = bitcast i32* %161 to i8*
  call void @llvm.lifetime.start(i64 4, i8* %464)
  %465 = atomicrmw volatile add i32* %462, i32 -1 acq_rel
  store i32 %465, i32* %161, align 4
  %466 = load volatile i32* %161, align 4
  call void @llvm.lifetime.end(i64 4, i8* %464)
  br label %_ZN9__gnu_cxxL27__exchange_and_add_dispatchEPii.exit.i.i.i17

; <label>:467                                     ; preds = %460
  %468 = load i32* %462, align 4, !tbaa !16
  %469 = add nsw i32 %468, -1
  store i32 %469, i32* %462, align 4, !tbaa !16
  br label %_ZN9__gnu_cxxL27__exchange_and_add_dispatchEPii.exit.i.i.i17

_ZN9__gnu_cxxL27__exchange_and_add_dispatchEPii.exit.i.i.i17: ; preds = %467, %463
  %.0.i.i.i.i16 = phi i32 [ %466, %463 ], [ %468, %467 ]
  %470 = icmp slt i32 %.0.i.i.i.i16, 1
  br i1 %470, label %471, label %_ZNSsD1Ev.exit18

; <label>:471                                     ; preds = %_ZN9__gnu_cxxL27__exchange_and_add_dispatchEPii.exit.i.i.i17
  call void @_ZNSs4_Rep10_M_destroyERKSaIcE(%"struct.std::basic_string<char, std::char_traits<char>, std::allocator<char> >::_Rep"* %458, %"class.std::allocator.0"* %162) #1
  br label %_ZNSsD1Ev.exit18

_ZNSsD1Ev.exit18:                                 ; preds = %471, %_ZN9__gnu_cxxL27__exchange_and_add_dispatchEPii.exit.i.i.i17, %_ZNSsD1Ev.exit15
  call void @llvm.lifetime.end(i64 1, i8* %454) #1
  call void @_ZNSsC1EPKcRKSaIcE(%"class.std::basic_string"* %188, i8* getelementptr inbounds ([6 x i8]* @.str2, i64 0, i64 0), %"class.std::allocator.0"* %189) #1
  call void @_ZNSsC1EPKcRKSaIcE(%"class.std::basic_string"* %190, i8* getelementptr inbounds ([12 x i8]* @.str4, i64 0, i64 0), %"class.std::allocator.0"* %191) #1
  %472 = getelementptr inbounds %class.TestCase* %187, i64 0, i32 0
  call void @_ZNSsC1ERKSs(%"class.std::basic_string"* %472, %"class.std::basic_string"* %188) #1
  %473 = getelementptr inbounds %class.TestCase* %187, i64 0, i32 1
  call void @_ZNSsC1ERKSs(%"class.std::basic_string"* %473, %"class.std::basic_string"* %190) #1
  %474 = getelementptr inbounds %class.TestCase* %187, i64 0, i32 2
  store i32 0, i32* %474, align 8, !tbaa !1
  %475 = getelementptr inbounds %class.TestCase* %187, i64 0, i32 3
  store i32 1, i32* %475, align 4, !tbaa !9
  %476 = load %class.TestCase** %292, align 8, !tbaa !10
  %477 = load %class.TestCase** %294, align 8, !tbaa !13
  %478 = icmp eq %class.TestCase* %476, %477
  br i1 %478, label %490, label %479

; <label>:479                                     ; preds = %_ZNSsD1Ev.exit18
  %480 = icmp eq %class.TestCase* %476, null
  br i1 %480, label %_ZN9__gnu_cxx14__alloc_traitsISaI8TestCaseEE9constructIS1_EEvRS2_PS1_RKT_.exit.i20, label %481

; <label>:481                                     ; preds = %479
  %482 = getelementptr inbounds %class.TestCase* %476, i64 0, i32 0
  call void @_ZNSsC1ERKSs(%"class.std::basic_string"* %482, %"class.std::basic_string"* %472) #1
  %483 = getelementptr inbounds %class.TestCase* %476, i64 0, i32 1
  call void @_ZNSsC1ERKSs(%"class.std::basic_string"* %483, %"class.std::basic_string"* %473) #1
  %484 = getelementptr inbounds %class.TestCase* %476, i64 0, i32 2
  %485 = bitcast i32* %474 to i64*
  %486 = bitcast i32* %484 to i64*
  %487 = load i64* %485, align 8
  store i64 %487, i64* %486, align 4
  %.pre.i19 = load %class.TestCase** %292, align 8, !tbaa !10
  br label %_ZN9__gnu_cxx14__alloc_traitsISaI8TestCaseEE9constructIS1_EEvRS2_PS1_RKT_.exit.i20

_ZN9__gnu_cxx14__alloc_traitsISaI8TestCaseEE9constructIS1_EEvRS2_PS1_RKT_.exit.i20: ; preds = %481, %479
  %488 = phi %class.TestCase* [ null, %479 ], [ %.pre.i19, %481 ]
  %489 = getelementptr inbounds %class.TestCase* %488, i64 1
  store %class.TestCase* %489, %class.TestCase** %292, align 8, !tbaa !10
  br label %_ZNSt6vectorI8TestCaseSaIS0_EE9push_backERKS0_.exit21

; <label>:490                                     ; preds = %_ZNSsD1Ev.exit18
  call void @_ZNSt6vectorI8TestCaseSaIS0_EE13_M_insert_auxEN9__gnu_cxx17__normal_iteratorIPS0_S2_EERKS0_(%"class.std::vector"* %testCases, %class.TestCase* %476, %class.TestCase* %187) #1
  br label %_ZNSt6vectorI8TestCaseSaIS0_EE9push_backERKS0_.exit21

_ZNSt6vectorI8TestCaseSaIS0_EE9push_backERKS0_.exit21: ; preds = %490, %_ZN9__gnu_cxx14__alloc_traitsISaI8TestCaseEE9constructIS1_EEvRS2_PS1_RKT_.exit.i20
  %491 = getelementptr inbounds %"class.std::allocator.0"* %160, i64 0, i32 0
  call void @llvm.lifetime.start(i64 1, i8* %491) #1
  %492 = getelementptr inbounds %class.TestCase* %187, i64 0, i32 1, i32 0, i32 0
  %493 = load i8** %492, align 8, !tbaa !14
  %494 = getelementptr inbounds i8* %493, i64 -24
  %495 = bitcast i8* %494 to %"struct.std::basic_string<char, std::char_traits<char>, std::allocator<char> >::_Rep"*
  %496 = icmp eq i8* %494, bitcast ([0 x i64]* @_ZNSs4_Rep20_S_empty_rep_storageE to i8*)
  br i1 %496, label %_ZNSsD1Ev.exit.i24, label %497, !prof !15

; <label>:497                                     ; preds = %_ZNSt6vectorI8TestCaseSaIS0_EE9push_backERKS0_.exit21
  %498 = getelementptr inbounds i8* %493, i64 -8
  %499 = bitcast i8* %498 to i32*
  br i1 icmp ne (i8* bitcast (i32 (i32*, void (i8*)*)* @__pthread_key_create to i8*), i8* null), label %500, label %504

; <label>:500                                     ; preds = %497
  %501 = bitcast i32* %159 to i8*
  call void @llvm.lifetime.start(i64 4, i8* %501)
  %502 = atomicrmw volatile add i32* %499, i32 -1 acq_rel
  store i32 %502, i32* %159, align 4
  %503 = load volatile i32* %159, align 4
  call void @llvm.lifetime.end(i64 4, i8* %501)
  br label %_ZN9__gnu_cxxL27__exchange_and_add_dispatchEPii.exit.i.i.i.i23

; <label>:504                                     ; preds = %497
  %505 = load i32* %499, align 4, !tbaa !16
  %506 = add nsw i32 %505, -1
  store i32 %506, i32* %499, align 4, !tbaa !16
  br label %_ZN9__gnu_cxxL27__exchange_and_add_dispatchEPii.exit.i.i.i.i23

_ZN9__gnu_cxxL27__exchange_and_add_dispatchEPii.exit.i.i.i.i23: ; preds = %504, %500
  %.0.i.i.i.i.i22 = phi i32 [ %503, %500 ], [ %505, %504 ]
  %507 = icmp slt i32 %.0.i.i.i.i.i22, 1
  br i1 %507, label %508, label %_ZNSsD1Ev.exit.i24

; <label>:508                                     ; preds = %_ZN9__gnu_cxxL27__exchange_and_add_dispatchEPii.exit.i.i.i.i23
  call void @_ZNSs4_Rep10_M_destroyERKSaIcE(%"struct.std::basic_string<char, std::char_traits<char>, std::allocator<char> >::_Rep"* %495, %"class.std::allocator.0"* %160) #1
  br label %_ZNSsD1Ev.exit.i24

_ZNSsD1Ev.exit.i24:                               ; preds = %508, %_ZN9__gnu_cxxL27__exchange_and_add_dispatchEPii.exit.i.i.i.i23, %_ZNSt6vectorI8TestCaseSaIS0_EE9push_backERKS0_.exit21
  call void @llvm.lifetime.end(i64 1, i8* %491) #1
  %509 = getelementptr inbounds %"class.std::allocator.0"* %158, i64 0, i32 0
  call void @llvm.lifetime.start(i64 1, i8* %509) #1
  %510 = getelementptr inbounds %class.TestCase* %187, i64 0, i32 0, i32 0, i32 0
  %511 = load i8** %510, align 8, !tbaa !14
  %512 = getelementptr inbounds i8* %511, i64 -24
  %513 = bitcast i8* %512 to %"struct.std::basic_string<char, std::char_traits<char>, std::allocator<char> >::_Rep"*
  %514 = icmp eq i8* %512, bitcast ([0 x i64]* @_ZNSs4_Rep20_S_empty_rep_storageE to i8*)
  br i1 %514, label %_ZN8TestCaseD2Ev.exit27, label %515, !prof !15

; <label>:515                                     ; preds = %_ZNSsD1Ev.exit.i24
  %516 = getelementptr inbounds i8* %511, i64 -8
  %517 = bitcast i8* %516 to i32*
  br i1 icmp ne (i8* bitcast (i32 (i32*, void (i8*)*)* @__pthread_key_create to i8*), i8* null), label %518, label %522

; <label>:518                                     ; preds = %515
  %519 = bitcast i32* %157 to i8*
  call void @llvm.lifetime.start(i64 4, i8* %519)
  %520 = atomicrmw volatile add i32* %517, i32 -1 acq_rel
  store i32 %520, i32* %157, align 4
  %521 = load volatile i32* %157, align 4
  call void @llvm.lifetime.end(i64 4, i8* %519)
  br label %_ZN9__gnu_cxxL27__exchange_and_add_dispatchEPii.exit.i.i.i2.i26

; <label>:522                                     ; preds = %515
  %523 = load i32* %517, align 4, !tbaa !16
  %524 = add nsw i32 %523, -1
  store i32 %524, i32* %517, align 4, !tbaa !16
  br label %_ZN9__gnu_cxxL27__exchange_and_add_dispatchEPii.exit.i.i.i2.i26

_ZN9__gnu_cxxL27__exchange_and_add_dispatchEPii.exit.i.i.i2.i26: ; preds = %522, %518
  %.0.i.i.i.i1.i25 = phi i32 [ %521, %518 ], [ %523, %522 ]
  %525 = icmp slt i32 %.0.i.i.i.i1.i25, 1
  br i1 %525, label %526, label %_ZN8TestCaseD2Ev.exit27

; <label>:526                                     ; preds = %_ZN9__gnu_cxxL27__exchange_and_add_dispatchEPii.exit.i.i.i2.i26
  call void @_ZNSs4_Rep10_M_destroyERKSaIcE(%"struct.std::basic_string<char, std::char_traits<char>, std::allocator<char> >::_Rep"* %513, %"class.std::allocator.0"* %158) #1
  br label %_ZN8TestCaseD2Ev.exit27

_ZN8TestCaseD2Ev.exit27:                          ; preds = %526, %_ZN9__gnu_cxxL27__exchange_and_add_dispatchEPii.exit.i.i.i2.i26, %_ZNSsD1Ev.exit.i24
  call void @llvm.lifetime.end(i64 1, i8* %509) #1
  %527 = getelementptr inbounds %"class.std::allocator.0"* %156, i64 0, i32 0
  call void @llvm.lifetime.start(i64 1, i8* %527) #1
  %528 = getelementptr inbounds %"class.std::basic_string"* %190, i64 0, i32 0, i32 0
  %529 = load i8** %528, align 8, !tbaa !14
  %530 = getelementptr inbounds i8* %529, i64 -24
  %531 = bitcast i8* %530 to %"struct.std::basic_string<char, std::char_traits<char>, std::allocator<char> >::_Rep"*
  %532 = icmp eq i8* %530, bitcast ([0 x i64]* @_ZNSs4_Rep20_S_empty_rep_storageE to i8*)
  br i1 %532, label %_ZNSsD1Ev.exit30, label %533, !prof !15

; <label>:533                                     ; preds = %_ZN8TestCaseD2Ev.exit27
  %534 = getelementptr inbounds i8* %529, i64 -8
  %535 = bitcast i8* %534 to i32*
  br i1 icmp ne (i8* bitcast (i32 (i32*, void (i8*)*)* @__pthread_key_create to i8*), i8* null), label %536, label %540

; <label>:536                                     ; preds = %533
  %537 = bitcast i32* %155 to i8*
  call void @llvm.lifetime.start(i64 4, i8* %537)
  %538 = atomicrmw volatile add i32* %535, i32 -1 acq_rel
  store i32 %538, i32* %155, align 4
  %539 = load volatile i32* %155, align 4
  call void @llvm.lifetime.end(i64 4, i8* %537)
  br label %_ZN9__gnu_cxxL27__exchange_and_add_dispatchEPii.exit.i.i.i29

; <label>:540                                     ; preds = %533
  %541 = load i32* %535, align 4, !tbaa !16
  %542 = add nsw i32 %541, -1
  store i32 %542, i32* %535, align 4, !tbaa !16
  br label %_ZN9__gnu_cxxL27__exchange_and_add_dispatchEPii.exit.i.i.i29

_ZN9__gnu_cxxL27__exchange_and_add_dispatchEPii.exit.i.i.i29: ; preds = %540, %536
  %.0.i.i.i.i28 = phi i32 [ %539, %536 ], [ %541, %540 ]
  %543 = icmp slt i32 %.0.i.i.i.i28, 1
  br i1 %543, label %544, label %_ZNSsD1Ev.exit30

; <label>:544                                     ; preds = %_ZN9__gnu_cxxL27__exchange_and_add_dispatchEPii.exit.i.i.i29
  call void @_ZNSs4_Rep10_M_destroyERKSaIcE(%"struct.std::basic_string<char, std::char_traits<char>, std::allocator<char> >::_Rep"* %531, %"class.std::allocator.0"* %156) #1
  br label %_ZNSsD1Ev.exit30

_ZNSsD1Ev.exit30:                                 ; preds = %544, %_ZN9__gnu_cxxL27__exchange_and_add_dispatchEPii.exit.i.i.i29, %_ZN8TestCaseD2Ev.exit27
  call void @llvm.lifetime.end(i64 1, i8* %527) #1
  %545 = getelementptr inbounds %"class.std::allocator.0"* %154, i64 0, i32 0
  call void @llvm.lifetime.start(i64 1, i8* %545) #1
  %546 = getelementptr inbounds %"class.std::basic_string"* %188, i64 0, i32 0, i32 0
  %547 = load i8** %546, align 8, !tbaa !14
  %548 = getelementptr inbounds i8* %547, i64 -24
  %549 = bitcast i8* %548 to %"struct.std::basic_string<char, std::char_traits<char>, std::allocator<char> >::_Rep"*
  %550 = icmp eq i8* %548, bitcast ([0 x i64]* @_ZNSs4_Rep20_S_empty_rep_storageE to i8*)
  br i1 %550, label %_ZNSsD1Ev.exit33, label %551, !prof !15

; <label>:551                                     ; preds = %_ZNSsD1Ev.exit30
  %552 = getelementptr inbounds i8* %547, i64 -8
  %553 = bitcast i8* %552 to i32*
  br i1 icmp ne (i8* bitcast (i32 (i32*, void (i8*)*)* @__pthread_key_create to i8*), i8* null), label %554, label %558

; <label>:554                                     ; preds = %551
  %555 = bitcast i32* %153 to i8*
  call void @llvm.lifetime.start(i64 4, i8* %555)
  %556 = atomicrmw volatile add i32* %553, i32 -1 acq_rel
  store i32 %556, i32* %153, align 4
  %557 = load volatile i32* %153, align 4
  call void @llvm.lifetime.end(i64 4, i8* %555)
  br label %_ZN9__gnu_cxxL27__exchange_and_add_dispatchEPii.exit.i.i.i32

; <label>:558                                     ; preds = %551
  %559 = load i32* %553, align 4, !tbaa !16
  %560 = add nsw i32 %559, -1
  store i32 %560, i32* %553, align 4, !tbaa !16
  br label %_ZN9__gnu_cxxL27__exchange_and_add_dispatchEPii.exit.i.i.i32

_ZN9__gnu_cxxL27__exchange_and_add_dispatchEPii.exit.i.i.i32: ; preds = %558, %554
  %.0.i.i.i.i31 = phi i32 [ %557, %554 ], [ %559, %558 ]
  %561 = icmp slt i32 %.0.i.i.i.i31, 1
  br i1 %561, label %562, label %_ZNSsD1Ev.exit33

; <label>:562                                     ; preds = %_ZN9__gnu_cxxL27__exchange_and_add_dispatchEPii.exit.i.i.i32
  call void @_ZNSs4_Rep10_M_destroyERKSaIcE(%"struct.std::basic_string<char, std::char_traits<char>, std::allocator<char> >::_Rep"* %549, %"class.std::allocator.0"* %154) #1
  br label %_ZNSsD1Ev.exit33

_ZNSsD1Ev.exit33:                                 ; preds = %562, %_ZN9__gnu_cxxL27__exchange_and_add_dispatchEPii.exit.i.i.i32, %_ZNSsD1Ev.exit30
  call void @llvm.lifetime.end(i64 1, i8* %545) #1
  call void @_ZNSsC1EPKcRKSaIcE(%"class.std::basic_string"* %193, i8* getelementptr inbounds ([6 x i8]* @.str5, i64 0, i64 0), %"class.std::allocator.0"* %194) #1
  call void @_ZNSsC1EPKcRKSaIcE(%"class.std::basic_string"* %195, i8* getelementptr inbounds ([11 x i8]* @.str3, i64 0, i64 0), %"class.std::allocator.0"* %196) #1
  %563 = getelementptr inbounds %class.TestCase* %192, i64 0, i32 0
  call void @_ZNSsC1ERKSs(%"class.std::basic_string"* %563, %"class.std::basic_string"* %193) #1
  %564 = getelementptr inbounds %class.TestCase* %192, i64 0, i32 1
  call void @_ZNSsC1ERKSs(%"class.std::basic_string"* %564, %"class.std::basic_string"* %195) #1
  %565 = getelementptr inbounds %class.TestCase* %192, i64 0, i32 2
  store i32 0, i32* %565, align 8, !tbaa !1
  %566 = getelementptr inbounds %class.TestCase* %192, i64 0, i32 3
  store i32 0, i32* %566, align 4, !tbaa !9
  %567 = load %class.TestCase** %292, align 8, !tbaa !10
  %568 = load %class.TestCase** %294, align 8, !tbaa !13
  %569 = icmp eq %class.TestCase* %567, %568
  br i1 %569, label %581, label %570

; <label>:570                                     ; preds = %_ZNSsD1Ev.exit33
  %571 = icmp eq %class.TestCase* %567, null
  br i1 %571, label %_ZN9__gnu_cxx14__alloc_traitsISaI8TestCaseEE9constructIS1_EEvRS2_PS1_RKT_.exit.i35, label %572

; <label>:572                                     ; preds = %570
  %573 = getelementptr inbounds %class.TestCase* %567, i64 0, i32 0
  call void @_ZNSsC1ERKSs(%"class.std::basic_string"* %573, %"class.std::basic_string"* %563) #1
  %574 = getelementptr inbounds %class.TestCase* %567, i64 0, i32 1
  call void @_ZNSsC1ERKSs(%"class.std::basic_string"* %574, %"class.std::basic_string"* %564) #1
  %575 = getelementptr inbounds %class.TestCase* %567, i64 0, i32 2
  %576 = bitcast i32* %565 to i64*
  %577 = bitcast i32* %575 to i64*
  %578 = load i64* %576, align 8
  store i64 %578, i64* %577, align 4
  %.pre.i34 = load %class.TestCase** %292, align 8, !tbaa !10
  br label %_ZN9__gnu_cxx14__alloc_traitsISaI8TestCaseEE9constructIS1_EEvRS2_PS1_RKT_.exit.i35

_ZN9__gnu_cxx14__alloc_traitsISaI8TestCaseEE9constructIS1_EEvRS2_PS1_RKT_.exit.i35: ; preds = %572, %570
  %579 = phi %class.TestCase* [ null, %570 ], [ %.pre.i34, %572 ]
  %580 = getelementptr inbounds %class.TestCase* %579, i64 1
  store %class.TestCase* %580, %class.TestCase** %292, align 8, !tbaa !10
  br label %_ZNSt6vectorI8TestCaseSaIS0_EE9push_backERKS0_.exit36

; <label>:581                                     ; preds = %_ZNSsD1Ev.exit33
  call void @_ZNSt6vectorI8TestCaseSaIS0_EE13_M_insert_auxEN9__gnu_cxx17__normal_iteratorIPS0_S2_EERKS0_(%"class.std::vector"* %testCases, %class.TestCase* %567, %class.TestCase* %192) #1
  br label %_ZNSt6vectorI8TestCaseSaIS0_EE9push_backERKS0_.exit36

_ZNSt6vectorI8TestCaseSaIS0_EE9push_backERKS0_.exit36: ; preds = %581, %_ZN9__gnu_cxx14__alloc_traitsISaI8TestCaseEE9constructIS1_EEvRS2_PS1_RKT_.exit.i35
  %582 = getelementptr inbounds %"class.std::allocator.0"* %152, i64 0, i32 0
  call void @llvm.lifetime.start(i64 1, i8* %582) #1
  %583 = getelementptr inbounds %class.TestCase* %192, i64 0, i32 1, i32 0, i32 0
  %584 = load i8** %583, align 8, !tbaa !14
  %585 = getelementptr inbounds i8* %584, i64 -24
  %586 = bitcast i8* %585 to %"struct.std::basic_string<char, std::char_traits<char>, std::allocator<char> >::_Rep"*
  %587 = icmp eq i8* %585, bitcast ([0 x i64]* @_ZNSs4_Rep20_S_empty_rep_storageE to i8*)
  br i1 %587, label %_ZNSsD1Ev.exit.i39, label %588, !prof !15

; <label>:588                                     ; preds = %_ZNSt6vectorI8TestCaseSaIS0_EE9push_backERKS0_.exit36
  %589 = getelementptr inbounds i8* %584, i64 -8
  %590 = bitcast i8* %589 to i32*
  br i1 icmp ne (i8* bitcast (i32 (i32*, void (i8*)*)* @__pthread_key_create to i8*), i8* null), label %591, label %595

; <label>:591                                     ; preds = %588
  %592 = bitcast i32* %151 to i8*
  call void @llvm.lifetime.start(i64 4, i8* %592)
  %593 = atomicrmw volatile add i32* %590, i32 -1 acq_rel
  store i32 %593, i32* %151, align 4
  %594 = load volatile i32* %151, align 4
  call void @llvm.lifetime.end(i64 4, i8* %592)
  br label %_ZN9__gnu_cxxL27__exchange_and_add_dispatchEPii.exit.i.i.i.i38

; <label>:595                                     ; preds = %588
  %596 = load i32* %590, align 4, !tbaa !16
  %597 = add nsw i32 %596, -1
  store i32 %597, i32* %590, align 4, !tbaa !16
  br label %_ZN9__gnu_cxxL27__exchange_and_add_dispatchEPii.exit.i.i.i.i38

_ZN9__gnu_cxxL27__exchange_and_add_dispatchEPii.exit.i.i.i.i38: ; preds = %595, %591
  %.0.i.i.i.i.i37 = phi i32 [ %594, %591 ], [ %596, %595 ]
  %598 = icmp slt i32 %.0.i.i.i.i.i37, 1
  br i1 %598, label %599, label %_ZNSsD1Ev.exit.i39

; <label>:599                                     ; preds = %_ZN9__gnu_cxxL27__exchange_and_add_dispatchEPii.exit.i.i.i.i38
  call void @_ZNSs4_Rep10_M_destroyERKSaIcE(%"struct.std::basic_string<char, std::char_traits<char>, std::allocator<char> >::_Rep"* %586, %"class.std::allocator.0"* %152) #1
  br label %_ZNSsD1Ev.exit.i39

_ZNSsD1Ev.exit.i39:                               ; preds = %599, %_ZN9__gnu_cxxL27__exchange_and_add_dispatchEPii.exit.i.i.i.i38, %_ZNSt6vectorI8TestCaseSaIS0_EE9push_backERKS0_.exit36
  call void @llvm.lifetime.end(i64 1, i8* %582) #1
  %600 = getelementptr inbounds %"class.std::allocator.0"* %150, i64 0, i32 0
  call void @llvm.lifetime.start(i64 1, i8* %600) #1
  %601 = getelementptr inbounds %class.TestCase* %192, i64 0, i32 0, i32 0, i32 0
  %602 = load i8** %601, align 8, !tbaa !14
  %603 = getelementptr inbounds i8* %602, i64 -24
  %604 = bitcast i8* %603 to %"struct.std::basic_string<char, std::char_traits<char>, std::allocator<char> >::_Rep"*
  %605 = icmp eq i8* %603, bitcast ([0 x i64]* @_ZNSs4_Rep20_S_empty_rep_storageE to i8*)
  br i1 %605, label %_ZN8TestCaseD2Ev.exit42, label %606, !prof !15

; <label>:606                                     ; preds = %_ZNSsD1Ev.exit.i39
  %607 = getelementptr inbounds i8* %602, i64 -8
  %608 = bitcast i8* %607 to i32*
  br i1 icmp ne (i8* bitcast (i32 (i32*, void (i8*)*)* @__pthread_key_create to i8*), i8* null), label %609, label %613

; <label>:609                                     ; preds = %606
  %610 = bitcast i32* %149 to i8*
  call void @llvm.lifetime.start(i64 4, i8* %610)
  %611 = atomicrmw volatile add i32* %608, i32 -1 acq_rel
  store i32 %611, i32* %149, align 4
  %612 = load volatile i32* %149, align 4
  call void @llvm.lifetime.end(i64 4, i8* %610)
  br label %_ZN9__gnu_cxxL27__exchange_and_add_dispatchEPii.exit.i.i.i2.i41

; <label>:613                                     ; preds = %606
  %614 = load i32* %608, align 4, !tbaa !16
  %615 = add nsw i32 %614, -1
  store i32 %615, i32* %608, align 4, !tbaa !16
  br label %_ZN9__gnu_cxxL27__exchange_and_add_dispatchEPii.exit.i.i.i2.i41

_ZN9__gnu_cxxL27__exchange_and_add_dispatchEPii.exit.i.i.i2.i41: ; preds = %613, %609
  %.0.i.i.i.i1.i40 = phi i32 [ %612, %609 ], [ %614, %613 ]
  %616 = icmp slt i32 %.0.i.i.i.i1.i40, 1
  br i1 %616, label %617, label %_ZN8TestCaseD2Ev.exit42

; <label>:617                                     ; preds = %_ZN9__gnu_cxxL27__exchange_and_add_dispatchEPii.exit.i.i.i2.i41
  call void @_ZNSs4_Rep10_M_destroyERKSaIcE(%"struct.std::basic_string<char, std::char_traits<char>, std::allocator<char> >::_Rep"* %604, %"class.std::allocator.0"* %150) #1
  br label %_ZN8TestCaseD2Ev.exit42

_ZN8TestCaseD2Ev.exit42:                          ; preds = %617, %_ZN9__gnu_cxxL27__exchange_and_add_dispatchEPii.exit.i.i.i2.i41, %_ZNSsD1Ev.exit.i39
  call void @llvm.lifetime.end(i64 1, i8* %600) #1
  %618 = getelementptr inbounds %"class.std::allocator.0"* %148, i64 0, i32 0
  call void @llvm.lifetime.start(i64 1, i8* %618) #1
  %619 = getelementptr inbounds %"class.std::basic_string"* %195, i64 0, i32 0, i32 0
  %620 = load i8** %619, align 8, !tbaa !14
  %621 = getelementptr inbounds i8* %620, i64 -24
  %622 = bitcast i8* %621 to %"struct.std::basic_string<char, std::char_traits<char>, std::allocator<char> >::_Rep"*
  %623 = icmp eq i8* %621, bitcast ([0 x i64]* @_ZNSs4_Rep20_S_empty_rep_storageE to i8*)
  br i1 %623, label %_ZNSsD1Ev.exit45, label %624, !prof !15

; <label>:624                                     ; preds = %_ZN8TestCaseD2Ev.exit42
  %625 = getelementptr inbounds i8* %620, i64 -8
  %626 = bitcast i8* %625 to i32*
  br i1 icmp ne (i8* bitcast (i32 (i32*, void (i8*)*)* @__pthread_key_create to i8*), i8* null), label %627, label %631

; <label>:627                                     ; preds = %624
  %628 = bitcast i32* %147 to i8*
  call void @llvm.lifetime.start(i64 4, i8* %628)
  %629 = atomicrmw volatile add i32* %626, i32 -1 acq_rel
  store i32 %629, i32* %147, align 4
  %630 = load volatile i32* %147, align 4
  call void @llvm.lifetime.end(i64 4, i8* %628)
  br label %_ZN9__gnu_cxxL27__exchange_and_add_dispatchEPii.exit.i.i.i44

; <label>:631                                     ; preds = %624
  %632 = load i32* %626, align 4, !tbaa !16
  %633 = add nsw i32 %632, -1
  store i32 %633, i32* %626, align 4, !tbaa !16
  br label %_ZN9__gnu_cxxL27__exchange_and_add_dispatchEPii.exit.i.i.i44

_ZN9__gnu_cxxL27__exchange_and_add_dispatchEPii.exit.i.i.i44: ; preds = %631, %627
  %.0.i.i.i.i43 = phi i32 [ %630, %627 ], [ %632, %631 ]
  %634 = icmp slt i32 %.0.i.i.i.i43, 1
  br i1 %634, label %635, label %_ZNSsD1Ev.exit45

; <label>:635                                     ; preds = %_ZN9__gnu_cxxL27__exchange_and_add_dispatchEPii.exit.i.i.i44
  call void @_ZNSs4_Rep10_M_destroyERKSaIcE(%"struct.std::basic_string<char, std::char_traits<char>, std::allocator<char> >::_Rep"* %622, %"class.std::allocator.0"* %148) #1
  br label %_ZNSsD1Ev.exit45

_ZNSsD1Ev.exit45:                                 ; preds = %635, %_ZN9__gnu_cxxL27__exchange_and_add_dispatchEPii.exit.i.i.i44, %_ZN8TestCaseD2Ev.exit42
  call void @llvm.lifetime.end(i64 1, i8* %618) #1
  %636 = getelementptr inbounds %"class.std::allocator.0"* %146, i64 0, i32 0
  call void @llvm.lifetime.start(i64 1, i8* %636) #1
  %637 = getelementptr inbounds %"class.std::basic_string"* %193, i64 0, i32 0, i32 0
  %638 = load i8** %637, align 8, !tbaa !14
  %639 = getelementptr inbounds i8* %638, i64 -24
  %640 = bitcast i8* %639 to %"struct.std::basic_string<char, std::char_traits<char>, std::allocator<char> >::_Rep"*
  %641 = icmp eq i8* %639, bitcast ([0 x i64]* @_ZNSs4_Rep20_S_empty_rep_storageE to i8*)
  br i1 %641, label %_ZNSsD1Ev.exit48, label %642, !prof !15

; <label>:642                                     ; preds = %_ZNSsD1Ev.exit45
  %643 = getelementptr inbounds i8* %638, i64 -8
  %644 = bitcast i8* %643 to i32*
  br i1 icmp ne (i8* bitcast (i32 (i32*, void (i8*)*)* @__pthread_key_create to i8*), i8* null), label %645, label %649

; <label>:645                                     ; preds = %642
  %646 = bitcast i32* %145 to i8*
  call void @llvm.lifetime.start(i64 4, i8* %646)
  %647 = atomicrmw volatile add i32* %644, i32 -1 acq_rel
  store i32 %647, i32* %145, align 4
  %648 = load volatile i32* %145, align 4
  call void @llvm.lifetime.end(i64 4, i8* %646)
  br label %_ZN9__gnu_cxxL27__exchange_and_add_dispatchEPii.exit.i.i.i47

; <label>:649                                     ; preds = %642
  %650 = load i32* %644, align 4, !tbaa !16
  %651 = add nsw i32 %650, -1
  store i32 %651, i32* %644, align 4, !tbaa !16
  br label %_ZN9__gnu_cxxL27__exchange_and_add_dispatchEPii.exit.i.i.i47

_ZN9__gnu_cxxL27__exchange_and_add_dispatchEPii.exit.i.i.i47: ; preds = %649, %645
  %.0.i.i.i.i46 = phi i32 [ %648, %645 ], [ %650, %649 ]
  %652 = icmp slt i32 %.0.i.i.i.i46, 1
  br i1 %652, label %653, label %_ZNSsD1Ev.exit48

; <label>:653                                     ; preds = %_ZN9__gnu_cxxL27__exchange_and_add_dispatchEPii.exit.i.i.i47
  call void @_ZNSs4_Rep10_M_destroyERKSaIcE(%"struct.std::basic_string<char, std::char_traits<char>, std::allocator<char> >::_Rep"* %640, %"class.std::allocator.0"* %146) #1
  br label %_ZNSsD1Ev.exit48

_ZNSsD1Ev.exit48:                                 ; preds = %653, %_ZN9__gnu_cxxL27__exchange_and_add_dispatchEPii.exit.i.i.i47, %_ZNSsD1Ev.exit45
  call void @llvm.lifetime.end(i64 1, i8* %636) #1
  call void @_ZNSsC1EPKcRKSaIcE(%"class.std::basic_string"* %198, i8* getelementptr inbounds ([6 x i8]* @.str5, i64 0, i64 0), %"class.std::allocator.0"* %199) #1
  call void @_ZNSsC1EPKcRKSaIcE(%"class.std::basic_string"* %200, i8* getelementptr inbounds ([11 x i8]* @.str6, i64 0, i64 0), %"class.std::allocator.0"* %201) #1
  %654 = getelementptr inbounds %class.TestCase* %197, i64 0, i32 0
  call void @_ZNSsC1ERKSs(%"class.std::basic_string"* %654, %"class.std::basic_string"* %198) #1
  %655 = getelementptr inbounds %class.TestCase* %197, i64 0, i32 1
  call void @_ZNSsC1ERKSs(%"class.std::basic_string"* %655, %"class.std::basic_string"* %200) #1
  %656 = getelementptr inbounds %class.TestCase* %197, i64 0, i32 2
  store i32 0, i32* %656, align 8, !tbaa !1
  %657 = getelementptr inbounds %class.TestCase* %197, i64 0, i32 3
  store i32 0, i32* %657, align 4, !tbaa !9
  %658 = load %class.TestCase** %292, align 8, !tbaa !10
  %659 = load %class.TestCase** %294, align 8, !tbaa !13
  %660 = icmp eq %class.TestCase* %658, %659
  br i1 %660, label %672, label %661

; <label>:661                                     ; preds = %_ZNSsD1Ev.exit48
  %662 = icmp eq %class.TestCase* %658, null
  br i1 %662, label %_ZN9__gnu_cxx14__alloc_traitsISaI8TestCaseEE9constructIS1_EEvRS2_PS1_RKT_.exit.i50, label %663

; <label>:663                                     ; preds = %661
  %664 = getelementptr inbounds %class.TestCase* %658, i64 0, i32 0
  call void @_ZNSsC1ERKSs(%"class.std::basic_string"* %664, %"class.std::basic_string"* %654) #1
  %665 = getelementptr inbounds %class.TestCase* %658, i64 0, i32 1
  call void @_ZNSsC1ERKSs(%"class.std::basic_string"* %665, %"class.std::basic_string"* %655) #1
  %666 = getelementptr inbounds %class.TestCase* %658, i64 0, i32 2
  %667 = bitcast i32* %656 to i64*
  %668 = bitcast i32* %666 to i64*
  %669 = load i64* %667, align 8
  store i64 %669, i64* %668, align 4
  %.pre.i49 = load %class.TestCase** %292, align 8, !tbaa !10
  br label %_ZN9__gnu_cxx14__alloc_traitsISaI8TestCaseEE9constructIS1_EEvRS2_PS1_RKT_.exit.i50

_ZN9__gnu_cxx14__alloc_traitsISaI8TestCaseEE9constructIS1_EEvRS2_PS1_RKT_.exit.i50: ; preds = %663, %661
  %670 = phi %class.TestCase* [ null, %661 ], [ %.pre.i49, %663 ]
  %671 = getelementptr inbounds %class.TestCase* %670, i64 1
  store %class.TestCase* %671, %class.TestCase** %292, align 8, !tbaa !10
  br label %_ZNSt6vectorI8TestCaseSaIS0_EE9push_backERKS0_.exit51

; <label>:672                                     ; preds = %_ZNSsD1Ev.exit48
  call void @_ZNSt6vectorI8TestCaseSaIS0_EE13_M_insert_auxEN9__gnu_cxx17__normal_iteratorIPS0_S2_EERKS0_(%"class.std::vector"* %testCases, %class.TestCase* %658, %class.TestCase* %197) #1
  br label %_ZNSt6vectorI8TestCaseSaIS0_EE9push_backERKS0_.exit51

_ZNSt6vectorI8TestCaseSaIS0_EE9push_backERKS0_.exit51: ; preds = %672, %_ZN9__gnu_cxx14__alloc_traitsISaI8TestCaseEE9constructIS1_EEvRS2_PS1_RKT_.exit.i50
  %673 = getelementptr inbounds %"class.std::allocator.0"* %144, i64 0, i32 0
  call void @llvm.lifetime.start(i64 1, i8* %673) #1
  %674 = getelementptr inbounds %class.TestCase* %197, i64 0, i32 1, i32 0, i32 0
  %675 = load i8** %674, align 8, !tbaa !14
  %676 = getelementptr inbounds i8* %675, i64 -24
  %677 = bitcast i8* %676 to %"struct.std::basic_string<char, std::char_traits<char>, std::allocator<char> >::_Rep"*
  %678 = icmp eq i8* %676, bitcast ([0 x i64]* @_ZNSs4_Rep20_S_empty_rep_storageE to i8*)
  br i1 %678, label %_ZNSsD1Ev.exit.i54, label %679, !prof !15

; <label>:679                                     ; preds = %_ZNSt6vectorI8TestCaseSaIS0_EE9push_backERKS0_.exit51
  %680 = getelementptr inbounds i8* %675, i64 -8
  %681 = bitcast i8* %680 to i32*
  br i1 icmp ne (i8* bitcast (i32 (i32*, void (i8*)*)* @__pthread_key_create to i8*), i8* null), label %682, label %686

; <label>:682                                     ; preds = %679
  %683 = bitcast i32* %143 to i8*
  call void @llvm.lifetime.start(i64 4, i8* %683)
  %684 = atomicrmw volatile add i32* %681, i32 -1 acq_rel
  store i32 %684, i32* %143, align 4
  %685 = load volatile i32* %143, align 4
  call void @llvm.lifetime.end(i64 4, i8* %683)
  br label %_ZN9__gnu_cxxL27__exchange_and_add_dispatchEPii.exit.i.i.i.i53

; <label>:686                                     ; preds = %679
  %687 = load i32* %681, align 4, !tbaa !16
  %688 = add nsw i32 %687, -1
  store i32 %688, i32* %681, align 4, !tbaa !16
  br label %_ZN9__gnu_cxxL27__exchange_and_add_dispatchEPii.exit.i.i.i.i53

_ZN9__gnu_cxxL27__exchange_and_add_dispatchEPii.exit.i.i.i.i53: ; preds = %686, %682
  %.0.i.i.i.i.i52 = phi i32 [ %685, %682 ], [ %687, %686 ]
  %689 = icmp slt i32 %.0.i.i.i.i.i52, 1
  br i1 %689, label %690, label %_ZNSsD1Ev.exit.i54

; <label>:690                                     ; preds = %_ZN9__gnu_cxxL27__exchange_and_add_dispatchEPii.exit.i.i.i.i53
  call void @_ZNSs4_Rep10_M_destroyERKSaIcE(%"struct.std::basic_string<char, std::char_traits<char>, std::allocator<char> >::_Rep"* %677, %"class.std::allocator.0"* %144) #1
  br label %_ZNSsD1Ev.exit.i54

_ZNSsD1Ev.exit.i54:                               ; preds = %690, %_ZN9__gnu_cxxL27__exchange_and_add_dispatchEPii.exit.i.i.i.i53, %_ZNSt6vectorI8TestCaseSaIS0_EE9push_backERKS0_.exit51
  call void @llvm.lifetime.end(i64 1, i8* %673) #1
  %691 = getelementptr inbounds %"class.std::allocator.0"* %142, i64 0, i32 0
  call void @llvm.lifetime.start(i64 1, i8* %691) #1
  %692 = getelementptr inbounds %class.TestCase* %197, i64 0, i32 0, i32 0, i32 0
  %693 = load i8** %692, align 8, !tbaa !14
  %694 = getelementptr inbounds i8* %693, i64 -24
  %695 = bitcast i8* %694 to %"struct.std::basic_string<char, std::char_traits<char>, std::allocator<char> >::_Rep"*
  %696 = icmp eq i8* %694, bitcast ([0 x i64]* @_ZNSs4_Rep20_S_empty_rep_storageE to i8*)
  br i1 %696, label %_ZN8TestCaseD2Ev.exit57, label %697, !prof !15

; <label>:697                                     ; preds = %_ZNSsD1Ev.exit.i54
  %698 = getelementptr inbounds i8* %693, i64 -8
  %699 = bitcast i8* %698 to i32*
  br i1 icmp ne (i8* bitcast (i32 (i32*, void (i8*)*)* @__pthread_key_create to i8*), i8* null), label %700, label %704

; <label>:700                                     ; preds = %697
  %701 = bitcast i32* %141 to i8*
  call void @llvm.lifetime.start(i64 4, i8* %701)
  %702 = atomicrmw volatile add i32* %699, i32 -1 acq_rel
  store i32 %702, i32* %141, align 4
  %703 = load volatile i32* %141, align 4
  call void @llvm.lifetime.end(i64 4, i8* %701)
  br label %_ZN9__gnu_cxxL27__exchange_and_add_dispatchEPii.exit.i.i.i2.i56

; <label>:704                                     ; preds = %697
  %705 = load i32* %699, align 4, !tbaa !16
  %706 = add nsw i32 %705, -1
  store i32 %706, i32* %699, align 4, !tbaa !16
  br label %_ZN9__gnu_cxxL27__exchange_and_add_dispatchEPii.exit.i.i.i2.i56

_ZN9__gnu_cxxL27__exchange_and_add_dispatchEPii.exit.i.i.i2.i56: ; preds = %704, %700
  %.0.i.i.i.i1.i55 = phi i32 [ %703, %700 ], [ %705, %704 ]
  %707 = icmp slt i32 %.0.i.i.i.i1.i55, 1
  br i1 %707, label %708, label %_ZN8TestCaseD2Ev.exit57

; <label>:708                                     ; preds = %_ZN9__gnu_cxxL27__exchange_and_add_dispatchEPii.exit.i.i.i2.i56
  call void @_ZNSs4_Rep10_M_destroyERKSaIcE(%"struct.std::basic_string<char, std::char_traits<char>, std::allocator<char> >::_Rep"* %695, %"class.std::allocator.0"* %142) #1
  br label %_ZN8TestCaseD2Ev.exit57

_ZN8TestCaseD2Ev.exit57:                          ; preds = %708, %_ZN9__gnu_cxxL27__exchange_and_add_dispatchEPii.exit.i.i.i2.i56, %_ZNSsD1Ev.exit.i54
  call void @llvm.lifetime.end(i64 1, i8* %691) #1
  %709 = getelementptr inbounds %"class.std::allocator.0"* %140, i64 0, i32 0
  call void @llvm.lifetime.start(i64 1, i8* %709) #1
  %710 = getelementptr inbounds %"class.std::basic_string"* %200, i64 0, i32 0, i32 0
  %711 = load i8** %710, align 8, !tbaa !14
  %712 = getelementptr inbounds i8* %711, i64 -24
  %713 = bitcast i8* %712 to %"struct.std::basic_string<char, std::char_traits<char>, std::allocator<char> >::_Rep"*
  %714 = icmp eq i8* %712, bitcast ([0 x i64]* @_ZNSs4_Rep20_S_empty_rep_storageE to i8*)
  br i1 %714, label %_ZNSsD1Ev.exit60, label %715, !prof !15

; <label>:715                                     ; preds = %_ZN8TestCaseD2Ev.exit57
  %716 = getelementptr inbounds i8* %711, i64 -8
  %717 = bitcast i8* %716 to i32*
  br i1 icmp ne (i8* bitcast (i32 (i32*, void (i8*)*)* @__pthread_key_create to i8*), i8* null), label %718, label %722

; <label>:718                                     ; preds = %715
  %719 = bitcast i32* %139 to i8*
  call void @llvm.lifetime.start(i64 4, i8* %719)
  %720 = atomicrmw volatile add i32* %717, i32 -1 acq_rel
  store i32 %720, i32* %139, align 4
  %721 = load volatile i32* %139, align 4
  call void @llvm.lifetime.end(i64 4, i8* %719)
  br label %_ZN9__gnu_cxxL27__exchange_and_add_dispatchEPii.exit.i.i.i59

; <label>:722                                     ; preds = %715
  %723 = load i32* %717, align 4, !tbaa !16
  %724 = add nsw i32 %723, -1
  store i32 %724, i32* %717, align 4, !tbaa !16
  br label %_ZN9__gnu_cxxL27__exchange_and_add_dispatchEPii.exit.i.i.i59

_ZN9__gnu_cxxL27__exchange_and_add_dispatchEPii.exit.i.i.i59: ; preds = %722, %718
  %.0.i.i.i.i58 = phi i32 [ %721, %718 ], [ %723, %722 ]
  %725 = icmp slt i32 %.0.i.i.i.i58, 1
  br i1 %725, label %726, label %_ZNSsD1Ev.exit60

; <label>:726                                     ; preds = %_ZN9__gnu_cxxL27__exchange_and_add_dispatchEPii.exit.i.i.i59
  call void @_ZNSs4_Rep10_M_destroyERKSaIcE(%"struct.std::basic_string<char, std::char_traits<char>, std::allocator<char> >::_Rep"* %713, %"class.std::allocator.0"* %140) #1
  br label %_ZNSsD1Ev.exit60

_ZNSsD1Ev.exit60:                                 ; preds = %726, %_ZN9__gnu_cxxL27__exchange_and_add_dispatchEPii.exit.i.i.i59, %_ZN8TestCaseD2Ev.exit57
  call void @llvm.lifetime.end(i64 1, i8* %709) #1
  %727 = getelementptr inbounds %"class.std::allocator.0"* %138, i64 0, i32 0
  call void @llvm.lifetime.start(i64 1, i8* %727) #1
  %728 = getelementptr inbounds %"class.std::basic_string"* %198, i64 0, i32 0, i32 0
  %729 = load i8** %728, align 8, !tbaa !14
  %730 = getelementptr inbounds i8* %729, i64 -24
  %731 = bitcast i8* %730 to %"struct.std::basic_string<char, std::char_traits<char>, std::allocator<char> >::_Rep"*
  %732 = icmp eq i8* %730, bitcast ([0 x i64]* @_ZNSs4_Rep20_S_empty_rep_storageE to i8*)
  br i1 %732, label %_ZNSsD1Ev.exit63, label %733, !prof !15

; <label>:733                                     ; preds = %_ZNSsD1Ev.exit60
  %734 = getelementptr inbounds i8* %729, i64 -8
  %735 = bitcast i8* %734 to i32*
  br i1 icmp ne (i8* bitcast (i32 (i32*, void (i8*)*)* @__pthread_key_create to i8*), i8* null), label %736, label %740

; <label>:736                                     ; preds = %733
  %737 = bitcast i32* %137 to i8*
  call void @llvm.lifetime.start(i64 4, i8* %737)
  %738 = atomicrmw volatile add i32* %735, i32 -1 acq_rel
  store i32 %738, i32* %137, align 4
  %739 = load volatile i32* %137, align 4
  call void @llvm.lifetime.end(i64 4, i8* %737)
  br label %_ZN9__gnu_cxxL27__exchange_and_add_dispatchEPii.exit.i.i.i62

; <label>:740                                     ; preds = %733
  %741 = load i32* %735, align 4, !tbaa !16
  %742 = add nsw i32 %741, -1
  store i32 %742, i32* %735, align 4, !tbaa !16
  br label %_ZN9__gnu_cxxL27__exchange_and_add_dispatchEPii.exit.i.i.i62

_ZN9__gnu_cxxL27__exchange_and_add_dispatchEPii.exit.i.i.i62: ; preds = %740, %736
  %.0.i.i.i.i61 = phi i32 [ %739, %736 ], [ %741, %740 ]
  %743 = icmp slt i32 %.0.i.i.i.i61, 1
  br i1 %743, label %744, label %_ZNSsD1Ev.exit63

; <label>:744                                     ; preds = %_ZN9__gnu_cxxL27__exchange_and_add_dispatchEPii.exit.i.i.i62
  call void @_ZNSs4_Rep10_M_destroyERKSaIcE(%"struct.std::basic_string<char, std::char_traits<char>, std::allocator<char> >::_Rep"* %731, %"class.std::allocator.0"* %138) #1
  br label %_ZNSsD1Ev.exit63

_ZNSsD1Ev.exit63:                                 ; preds = %744, %_ZN9__gnu_cxxL27__exchange_and_add_dispatchEPii.exit.i.i.i62, %_ZNSsD1Ev.exit60
  call void @llvm.lifetime.end(i64 1, i8* %727) #1
  call void @_ZNSsC1EPKcRKSaIcE(%"class.std::basic_string"* %203, i8* getelementptr inbounds ([6 x i8]* @.str5, i64 0, i64 0), %"class.std::allocator.0"* %204) #1
  call void @_ZNSsC1EPKcRKSaIcE(%"class.std::basic_string"* %205, i8* getelementptr inbounds ([12 x i8]* @.str7, i64 0, i64 0), %"class.std::allocator.0"* %206) #1
  %745 = getelementptr inbounds %class.TestCase* %202, i64 0, i32 0
  call void @_ZNSsC1ERKSs(%"class.std::basic_string"* %745, %"class.std::basic_string"* %203) #1
  %746 = getelementptr inbounds %class.TestCase* %202, i64 0, i32 1
  call void @_ZNSsC1ERKSs(%"class.std::basic_string"* %746, %"class.std::basic_string"* %205) #1
  %747 = getelementptr inbounds %class.TestCase* %202, i64 0, i32 2
  store i32 0, i32* %747, align 8, !tbaa !1
  %748 = getelementptr inbounds %class.TestCase* %202, i64 0, i32 3
  store i32 1, i32* %748, align 4, !tbaa !9
  %749 = load %class.TestCase** %292, align 8, !tbaa !10
  %750 = load %class.TestCase** %294, align 8, !tbaa !13
  %751 = icmp eq %class.TestCase* %749, %750
  br i1 %751, label %763, label %752

; <label>:752                                     ; preds = %_ZNSsD1Ev.exit63
  %753 = icmp eq %class.TestCase* %749, null
  br i1 %753, label %_ZN9__gnu_cxx14__alloc_traitsISaI8TestCaseEE9constructIS1_EEvRS2_PS1_RKT_.exit.i65, label %754

; <label>:754                                     ; preds = %752
  %755 = getelementptr inbounds %class.TestCase* %749, i64 0, i32 0
  call void @_ZNSsC1ERKSs(%"class.std::basic_string"* %755, %"class.std::basic_string"* %745) #1
  %756 = getelementptr inbounds %class.TestCase* %749, i64 0, i32 1
  call void @_ZNSsC1ERKSs(%"class.std::basic_string"* %756, %"class.std::basic_string"* %746) #1
  %757 = getelementptr inbounds %class.TestCase* %749, i64 0, i32 2
  %758 = bitcast i32* %747 to i64*
  %759 = bitcast i32* %757 to i64*
  %760 = load i64* %758, align 8
  store i64 %760, i64* %759, align 4
  %.pre.i64 = load %class.TestCase** %292, align 8, !tbaa !10
  br label %_ZN9__gnu_cxx14__alloc_traitsISaI8TestCaseEE9constructIS1_EEvRS2_PS1_RKT_.exit.i65

_ZN9__gnu_cxx14__alloc_traitsISaI8TestCaseEE9constructIS1_EEvRS2_PS1_RKT_.exit.i65: ; preds = %754, %752
  %761 = phi %class.TestCase* [ null, %752 ], [ %.pre.i64, %754 ]
  %762 = getelementptr inbounds %class.TestCase* %761, i64 1
  store %class.TestCase* %762, %class.TestCase** %292, align 8, !tbaa !10
  br label %_ZNSt6vectorI8TestCaseSaIS0_EE9push_backERKS0_.exit66

; <label>:763                                     ; preds = %_ZNSsD1Ev.exit63
  call void @_ZNSt6vectorI8TestCaseSaIS0_EE13_M_insert_auxEN9__gnu_cxx17__normal_iteratorIPS0_S2_EERKS0_(%"class.std::vector"* %testCases, %class.TestCase* %749, %class.TestCase* %202) #1
  br label %_ZNSt6vectorI8TestCaseSaIS0_EE9push_backERKS0_.exit66

_ZNSt6vectorI8TestCaseSaIS0_EE9push_backERKS0_.exit66: ; preds = %763, %_ZN9__gnu_cxx14__alloc_traitsISaI8TestCaseEE9constructIS1_EEvRS2_PS1_RKT_.exit.i65
  %764 = getelementptr inbounds %"class.std::allocator.0"* %136, i64 0, i32 0
  call void @llvm.lifetime.start(i64 1, i8* %764) #1
  %765 = getelementptr inbounds %class.TestCase* %202, i64 0, i32 1, i32 0, i32 0
  %766 = load i8** %765, align 8, !tbaa !14
  %767 = getelementptr inbounds i8* %766, i64 -24
  %768 = bitcast i8* %767 to %"struct.std::basic_string<char, std::char_traits<char>, std::allocator<char> >::_Rep"*
  %769 = icmp eq i8* %767, bitcast ([0 x i64]* @_ZNSs4_Rep20_S_empty_rep_storageE to i8*)
  br i1 %769, label %_ZNSsD1Ev.exit.i69, label %770, !prof !15

; <label>:770                                     ; preds = %_ZNSt6vectorI8TestCaseSaIS0_EE9push_backERKS0_.exit66
  %771 = getelementptr inbounds i8* %766, i64 -8
  %772 = bitcast i8* %771 to i32*
  br i1 icmp ne (i8* bitcast (i32 (i32*, void (i8*)*)* @__pthread_key_create to i8*), i8* null), label %773, label %777

; <label>:773                                     ; preds = %770
  %774 = bitcast i32* %135 to i8*
  call void @llvm.lifetime.start(i64 4, i8* %774)
  %775 = atomicrmw volatile add i32* %772, i32 -1 acq_rel
  store i32 %775, i32* %135, align 4
  %776 = load volatile i32* %135, align 4
  call void @llvm.lifetime.end(i64 4, i8* %774)
  br label %_ZN9__gnu_cxxL27__exchange_and_add_dispatchEPii.exit.i.i.i.i68

; <label>:777                                     ; preds = %770
  %778 = load i32* %772, align 4, !tbaa !16
  %779 = add nsw i32 %778, -1
  store i32 %779, i32* %772, align 4, !tbaa !16
  br label %_ZN9__gnu_cxxL27__exchange_and_add_dispatchEPii.exit.i.i.i.i68

_ZN9__gnu_cxxL27__exchange_and_add_dispatchEPii.exit.i.i.i.i68: ; preds = %777, %773
  %.0.i.i.i.i.i67 = phi i32 [ %776, %773 ], [ %778, %777 ]
  %780 = icmp slt i32 %.0.i.i.i.i.i67, 1
  br i1 %780, label %781, label %_ZNSsD1Ev.exit.i69

; <label>:781                                     ; preds = %_ZN9__gnu_cxxL27__exchange_and_add_dispatchEPii.exit.i.i.i.i68
  call void @_ZNSs4_Rep10_M_destroyERKSaIcE(%"struct.std::basic_string<char, std::char_traits<char>, std::allocator<char> >::_Rep"* %768, %"class.std::allocator.0"* %136) #1
  br label %_ZNSsD1Ev.exit.i69

_ZNSsD1Ev.exit.i69:                               ; preds = %781, %_ZN9__gnu_cxxL27__exchange_and_add_dispatchEPii.exit.i.i.i.i68, %_ZNSt6vectorI8TestCaseSaIS0_EE9push_backERKS0_.exit66
  call void @llvm.lifetime.end(i64 1, i8* %764) #1
  %782 = getelementptr inbounds %"class.std::allocator.0"* %134, i64 0, i32 0
  call void @llvm.lifetime.start(i64 1, i8* %782) #1
  %783 = getelementptr inbounds %class.TestCase* %202, i64 0, i32 0, i32 0, i32 0
  %784 = load i8** %783, align 8, !tbaa !14
  %785 = getelementptr inbounds i8* %784, i64 -24
  %786 = bitcast i8* %785 to %"struct.std::basic_string<char, std::char_traits<char>, std::allocator<char> >::_Rep"*
  %787 = icmp eq i8* %785, bitcast ([0 x i64]* @_ZNSs4_Rep20_S_empty_rep_storageE to i8*)
  br i1 %787, label %_ZN8TestCaseD2Ev.exit72, label %788, !prof !15

; <label>:788                                     ; preds = %_ZNSsD1Ev.exit.i69
  %789 = getelementptr inbounds i8* %784, i64 -8
  %790 = bitcast i8* %789 to i32*
  br i1 icmp ne (i8* bitcast (i32 (i32*, void (i8*)*)* @__pthread_key_create to i8*), i8* null), label %791, label %795

; <label>:791                                     ; preds = %788
  %792 = bitcast i32* %133 to i8*
  call void @llvm.lifetime.start(i64 4, i8* %792)
  %793 = atomicrmw volatile add i32* %790, i32 -1 acq_rel
  store i32 %793, i32* %133, align 4
  %794 = load volatile i32* %133, align 4
  call void @llvm.lifetime.end(i64 4, i8* %792)
  br label %_ZN9__gnu_cxxL27__exchange_and_add_dispatchEPii.exit.i.i.i2.i71

; <label>:795                                     ; preds = %788
  %796 = load i32* %790, align 4, !tbaa !16
  %797 = add nsw i32 %796, -1
  store i32 %797, i32* %790, align 4, !tbaa !16
  br label %_ZN9__gnu_cxxL27__exchange_and_add_dispatchEPii.exit.i.i.i2.i71

_ZN9__gnu_cxxL27__exchange_and_add_dispatchEPii.exit.i.i.i2.i71: ; preds = %795, %791
  %.0.i.i.i.i1.i70 = phi i32 [ %794, %791 ], [ %796, %795 ]
  %798 = icmp slt i32 %.0.i.i.i.i1.i70, 1
  br i1 %798, label %799, label %_ZN8TestCaseD2Ev.exit72

; <label>:799                                     ; preds = %_ZN9__gnu_cxxL27__exchange_and_add_dispatchEPii.exit.i.i.i2.i71
  call void @_ZNSs4_Rep10_M_destroyERKSaIcE(%"struct.std::basic_string<char, std::char_traits<char>, std::allocator<char> >::_Rep"* %786, %"class.std::allocator.0"* %134) #1
  br label %_ZN8TestCaseD2Ev.exit72

_ZN8TestCaseD2Ev.exit72:                          ; preds = %799, %_ZN9__gnu_cxxL27__exchange_and_add_dispatchEPii.exit.i.i.i2.i71, %_ZNSsD1Ev.exit.i69
  call void @llvm.lifetime.end(i64 1, i8* %782) #1
  %800 = getelementptr inbounds %"class.std::allocator.0"* %132, i64 0, i32 0
  call void @llvm.lifetime.start(i64 1, i8* %800) #1
  %801 = getelementptr inbounds %"class.std::basic_string"* %205, i64 0, i32 0, i32 0
  %802 = load i8** %801, align 8, !tbaa !14
  %803 = getelementptr inbounds i8* %802, i64 -24
  %804 = bitcast i8* %803 to %"struct.std::basic_string<char, std::char_traits<char>, std::allocator<char> >::_Rep"*
  %805 = icmp eq i8* %803, bitcast ([0 x i64]* @_ZNSs4_Rep20_S_empty_rep_storageE to i8*)
  br i1 %805, label %_ZNSsD1Ev.exit75, label %806, !prof !15

; <label>:806                                     ; preds = %_ZN8TestCaseD2Ev.exit72
  %807 = getelementptr inbounds i8* %802, i64 -8
  %808 = bitcast i8* %807 to i32*
  br i1 icmp ne (i8* bitcast (i32 (i32*, void (i8*)*)* @__pthread_key_create to i8*), i8* null), label %809, label %813

; <label>:809                                     ; preds = %806
  %810 = bitcast i32* %131 to i8*
  call void @llvm.lifetime.start(i64 4, i8* %810)
  %811 = atomicrmw volatile add i32* %808, i32 -1 acq_rel
  store i32 %811, i32* %131, align 4
  %812 = load volatile i32* %131, align 4
  call void @llvm.lifetime.end(i64 4, i8* %810)
  br label %_ZN9__gnu_cxxL27__exchange_and_add_dispatchEPii.exit.i.i.i74

; <label>:813                                     ; preds = %806
  %814 = load i32* %808, align 4, !tbaa !16
  %815 = add nsw i32 %814, -1
  store i32 %815, i32* %808, align 4, !tbaa !16
  br label %_ZN9__gnu_cxxL27__exchange_and_add_dispatchEPii.exit.i.i.i74

_ZN9__gnu_cxxL27__exchange_and_add_dispatchEPii.exit.i.i.i74: ; preds = %813, %809
  %.0.i.i.i.i73 = phi i32 [ %812, %809 ], [ %814, %813 ]
  %816 = icmp slt i32 %.0.i.i.i.i73, 1
  br i1 %816, label %817, label %_ZNSsD1Ev.exit75

; <label>:817                                     ; preds = %_ZN9__gnu_cxxL27__exchange_and_add_dispatchEPii.exit.i.i.i74
  call void @_ZNSs4_Rep10_M_destroyERKSaIcE(%"struct.std::basic_string<char, std::char_traits<char>, std::allocator<char> >::_Rep"* %804, %"class.std::allocator.0"* %132) #1
  br label %_ZNSsD1Ev.exit75

_ZNSsD1Ev.exit75:                                 ; preds = %817, %_ZN9__gnu_cxxL27__exchange_and_add_dispatchEPii.exit.i.i.i74, %_ZN8TestCaseD2Ev.exit72
  call void @llvm.lifetime.end(i64 1, i8* %800) #1
  %818 = getelementptr inbounds %"class.std::allocator.0"* %130, i64 0, i32 0
  call void @llvm.lifetime.start(i64 1, i8* %818) #1
  %819 = getelementptr inbounds %"class.std::basic_string"* %203, i64 0, i32 0, i32 0
  %820 = load i8** %819, align 8, !tbaa !14
  %821 = getelementptr inbounds i8* %820, i64 -24
  %822 = bitcast i8* %821 to %"struct.std::basic_string<char, std::char_traits<char>, std::allocator<char> >::_Rep"*
  %823 = icmp eq i8* %821, bitcast ([0 x i64]* @_ZNSs4_Rep20_S_empty_rep_storageE to i8*)
  br i1 %823, label %_ZNSsD1Ev.exit78, label %824, !prof !15

; <label>:824                                     ; preds = %_ZNSsD1Ev.exit75
  %825 = getelementptr inbounds i8* %820, i64 -8
  %826 = bitcast i8* %825 to i32*
  br i1 icmp ne (i8* bitcast (i32 (i32*, void (i8*)*)* @__pthread_key_create to i8*), i8* null), label %827, label %831

; <label>:827                                     ; preds = %824
  %828 = bitcast i32* %129 to i8*
  call void @llvm.lifetime.start(i64 4, i8* %828)
  %829 = atomicrmw volatile add i32* %826, i32 -1 acq_rel
  store i32 %829, i32* %129, align 4
  %830 = load volatile i32* %129, align 4
  call void @llvm.lifetime.end(i64 4, i8* %828)
  br label %_ZN9__gnu_cxxL27__exchange_and_add_dispatchEPii.exit.i.i.i77

; <label>:831                                     ; preds = %824
  %832 = load i32* %826, align 4, !tbaa !16
  %833 = add nsw i32 %832, -1
  store i32 %833, i32* %826, align 4, !tbaa !16
  br label %_ZN9__gnu_cxxL27__exchange_and_add_dispatchEPii.exit.i.i.i77

_ZN9__gnu_cxxL27__exchange_and_add_dispatchEPii.exit.i.i.i77: ; preds = %831, %827
  %.0.i.i.i.i76 = phi i32 [ %830, %827 ], [ %832, %831 ]
  %834 = icmp slt i32 %.0.i.i.i.i76, 1
  br i1 %834, label %835, label %_ZNSsD1Ev.exit78

; <label>:835                                     ; preds = %_ZN9__gnu_cxxL27__exchange_and_add_dispatchEPii.exit.i.i.i77
  call void @_ZNSs4_Rep10_M_destroyERKSaIcE(%"struct.std::basic_string<char, std::char_traits<char>, std::allocator<char> >::_Rep"* %822, %"class.std::allocator.0"* %130) #1
  br label %_ZNSsD1Ev.exit78

_ZNSsD1Ev.exit78:                                 ; preds = %835, %_ZN9__gnu_cxxL27__exchange_and_add_dispatchEPii.exit.i.i.i77, %_ZNSsD1Ev.exit75
  call void @llvm.lifetime.end(i64 1, i8* %818) #1
  call void @_ZNSsC1EPKcRKSaIcE(%"class.std::basic_string"* %208, i8* getelementptr inbounds ([7 x i8]* @.str8, i64 0, i64 0), %"class.std::allocator.0"* %209) #1
  call void @_ZNSsC1EPKcRKSaIcE(%"class.std::basic_string"* %210, i8* getelementptr inbounds ([3 x i8]* @.str9, i64 0, i64 0), %"class.std::allocator.0"* %211) #1
  %836 = getelementptr inbounds %class.TestCase* %207, i64 0, i32 0
  call void @_ZNSsC1ERKSs(%"class.std::basic_string"* %836, %"class.std::basic_string"* %208) #1
  %837 = getelementptr inbounds %class.TestCase* %207, i64 0, i32 1
  call void @_ZNSsC1ERKSs(%"class.std::basic_string"* %837, %"class.std::basic_string"* %210) #1
  %838 = getelementptr inbounds %class.TestCase* %207, i64 0, i32 2
  store i32 0, i32* %838, align 8, !tbaa !1
  %839 = getelementptr inbounds %class.TestCase* %207, i64 0, i32 3
  store i32 0, i32* %839, align 4, !tbaa !9
  %840 = load %class.TestCase** %292, align 8, !tbaa !10
  %841 = load %class.TestCase** %294, align 8, !tbaa !13
  %842 = icmp eq %class.TestCase* %840, %841
  br i1 %842, label %854, label %843

; <label>:843                                     ; preds = %_ZNSsD1Ev.exit78
  %844 = icmp eq %class.TestCase* %840, null
  br i1 %844, label %_ZN9__gnu_cxx14__alloc_traitsISaI8TestCaseEE9constructIS1_EEvRS2_PS1_RKT_.exit.i80, label %845

; <label>:845                                     ; preds = %843
  %846 = getelementptr inbounds %class.TestCase* %840, i64 0, i32 0
  call void @_ZNSsC1ERKSs(%"class.std::basic_string"* %846, %"class.std::basic_string"* %836) #1
  %847 = getelementptr inbounds %class.TestCase* %840, i64 0, i32 1
  call void @_ZNSsC1ERKSs(%"class.std::basic_string"* %847, %"class.std::basic_string"* %837) #1
  %848 = getelementptr inbounds %class.TestCase* %840, i64 0, i32 2
  %849 = bitcast i32* %838 to i64*
  %850 = bitcast i32* %848 to i64*
  %851 = load i64* %849, align 8
  store i64 %851, i64* %850, align 4
  %.pre.i79 = load %class.TestCase** %292, align 8, !tbaa !10
  br label %_ZN9__gnu_cxx14__alloc_traitsISaI8TestCaseEE9constructIS1_EEvRS2_PS1_RKT_.exit.i80

_ZN9__gnu_cxx14__alloc_traitsISaI8TestCaseEE9constructIS1_EEvRS2_PS1_RKT_.exit.i80: ; preds = %845, %843
  %852 = phi %class.TestCase* [ null, %843 ], [ %.pre.i79, %845 ]
  %853 = getelementptr inbounds %class.TestCase* %852, i64 1
  store %class.TestCase* %853, %class.TestCase** %292, align 8, !tbaa !10
  br label %_ZNSt6vectorI8TestCaseSaIS0_EE9push_backERKS0_.exit81

; <label>:854                                     ; preds = %_ZNSsD1Ev.exit78
  call void @_ZNSt6vectorI8TestCaseSaIS0_EE13_M_insert_auxEN9__gnu_cxx17__normal_iteratorIPS0_S2_EERKS0_(%"class.std::vector"* %testCases, %class.TestCase* %840, %class.TestCase* %207) #1
  br label %_ZNSt6vectorI8TestCaseSaIS0_EE9push_backERKS0_.exit81

_ZNSt6vectorI8TestCaseSaIS0_EE9push_backERKS0_.exit81: ; preds = %854, %_ZN9__gnu_cxx14__alloc_traitsISaI8TestCaseEE9constructIS1_EEvRS2_PS1_RKT_.exit.i80
  %855 = getelementptr inbounds %"class.std::allocator.0"* %128, i64 0, i32 0
  call void @llvm.lifetime.start(i64 1, i8* %855) #1
  %856 = getelementptr inbounds %class.TestCase* %207, i64 0, i32 1, i32 0, i32 0
  %857 = load i8** %856, align 8, !tbaa !14
  %858 = getelementptr inbounds i8* %857, i64 -24
  %859 = bitcast i8* %858 to %"struct.std::basic_string<char, std::char_traits<char>, std::allocator<char> >::_Rep"*
  %860 = icmp eq i8* %858, bitcast ([0 x i64]* @_ZNSs4_Rep20_S_empty_rep_storageE to i8*)
  br i1 %860, label %_ZNSsD1Ev.exit.i84, label %861, !prof !15

; <label>:861                                     ; preds = %_ZNSt6vectorI8TestCaseSaIS0_EE9push_backERKS0_.exit81
  %862 = getelementptr inbounds i8* %857, i64 -8
  %863 = bitcast i8* %862 to i32*
  br i1 icmp ne (i8* bitcast (i32 (i32*, void (i8*)*)* @__pthread_key_create to i8*), i8* null), label %864, label %868

; <label>:864                                     ; preds = %861
  %865 = bitcast i32* %127 to i8*
  call void @llvm.lifetime.start(i64 4, i8* %865)
  %866 = atomicrmw volatile add i32* %863, i32 -1 acq_rel
  store i32 %866, i32* %127, align 4
  %867 = load volatile i32* %127, align 4
  call void @llvm.lifetime.end(i64 4, i8* %865)
  br label %_ZN9__gnu_cxxL27__exchange_and_add_dispatchEPii.exit.i.i.i.i83

; <label>:868                                     ; preds = %861
  %869 = load i32* %863, align 4, !tbaa !16
  %870 = add nsw i32 %869, -1
  store i32 %870, i32* %863, align 4, !tbaa !16
  br label %_ZN9__gnu_cxxL27__exchange_and_add_dispatchEPii.exit.i.i.i.i83

_ZN9__gnu_cxxL27__exchange_and_add_dispatchEPii.exit.i.i.i.i83: ; preds = %868, %864
  %.0.i.i.i.i.i82 = phi i32 [ %867, %864 ], [ %869, %868 ]
  %871 = icmp slt i32 %.0.i.i.i.i.i82, 1
  br i1 %871, label %872, label %_ZNSsD1Ev.exit.i84

; <label>:872                                     ; preds = %_ZN9__gnu_cxxL27__exchange_and_add_dispatchEPii.exit.i.i.i.i83
  call void @_ZNSs4_Rep10_M_destroyERKSaIcE(%"struct.std::basic_string<char, std::char_traits<char>, std::allocator<char> >::_Rep"* %859, %"class.std::allocator.0"* %128) #1
  br label %_ZNSsD1Ev.exit.i84

_ZNSsD1Ev.exit.i84:                               ; preds = %872, %_ZN9__gnu_cxxL27__exchange_and_add_dispatchEPii.exit.i.i.i.i83, %_ZNSt6vectorI8TestCaseSaIS0_EE9push_backERKS0_.exit81
  call void @llvm.lifetime.end(i64 1, i8* %855) #1
  %873 = getelementptr inbounds %"class.std::allocator.0"* %126, i64 0, i32 0
  call void @llvm.lifetime.start(i64 1, i8* %873) #1
  %874 = getelementptr inbounds %class.TestCase* %207, i64 0, i32 0, i32 0, i32 0
  %875 = load i8** %874, align 8, !tbaa !14
  %876 = getelementptr inbounds i8* %875, i64 -24
  %877 = bitcast i8* %876 to %"struct.std::basic_string<char, std::char_traits<char>, std::allocator<char> >::_Rep"*
  %878 = icmp eq i8* %876, bitcast ([0 x i64]* @_ZNSs4_Rep20_S_empty_rep_storageE to i8*)
  br i1 %878, label %_ZN8TestCaseD2Ev.exit87, label %879, !prof !15

; <label>:879                                     ; preds = %_ZNSsD1Ev.exit.i84
  %880 = getelementptr inbounds i8* %875, i64 -8
  %881 = bitcast i8* %880 to i32*
  br i1 icmp ne (i8* bitcast (i32 (i32*, void (i8*)*)* @__pthread_key_create to i8*), i8* null), label %882, label %886

; <label>:882                                     ; preds = %879
  %883 = bitcast i32* %125 to i8*
  call void @llvm.lifetime.start(i64 4, i8* %883)
  %884 = atomicrmw volatile add i32* %881, i32 -1 acq_rel
  store i32 %884, i32* %125, align 4
  %885 = load volatile i32* %125, align 4
  call void @llvm.lifetime.end(i64 4, i8* %883)
  br label %_ZN9__gnu_cxxL27__exchange_and_add_dispatchEPii.exit.i.i.i2.i86

; <label>:886                                     ; preds = %879
  %887 = load i32* %881, align 4, !tbaa !16
  %888 = add nsw i32 %887, -1
  store i32 %888, i32* %881, align 4, !tbaa !16
  br label %_ZN9__gnu_cxxL27__exchange_and_add_dispatchEPii.exit.i.i.i2.i86

_ZN9__gnu_cxxL27__exchange_and_add_dispatchEPii.exit.i.i.i2.i86: ; preds = %886, %882
  %.0.i.i.i.i1.i85 = phi i32 [ %885, %882 ], [ %887, %886 ]
  %889 = icmp slt i32 %.0.i.i.i.i1.i85, 1
  br i1 %889, label %890, label %_ZN8TestCaseD2Ev.exit87

; <label>:890                                     ; preds = %_ZN9__gnu_cxxL27__exchange_and_add_dispatchEPii.exit.i.i.i2.i86
  call void @_ZNSs4_Rep10_M_destroyERKSaIcE(%"struct.std::basic_string<char, std::char_traits<char>, std::allocator<char> >::_Rep"* %877, %"class.std::allocator.0"* %126) #1
  br label %_ZN8TestCaseD2Ev.exit87

_ZN8TestCaseD2Ev.exit87:                          ; preds = %890, %_ZN9__gnu_cxxL27__exchange_and_add_dispatchEPii.exit.i.i.i2.i86, %_ZNSsD1Ev.exit.i84
  call void @llvm.lifetime.end(i64 1, i8* %873) #1
  %891 = getelementptr inbounds %"class.std::allocator.0"* %124, i64 0, i32 0
  call void @llvm.lifetime.start(i64 1, i8* %891) #1
  %892 = getelementptr inbounds %"class.std::basic_string"* %210, i64 0, i32 0, i32 0
  %893 = load i8** %892, align 8, !tbaa !14
  %894 = getelementptr inbounds i8* %893, i64 -24
  %895 = bitcast i8* %894 to %"struct.std::basic_string<char, std::char_traits<char>, std::allocator<char> >::_Rep"*
  %896 = icmp eq i8* %894, bitcast ([0 x i64]* @_ZNSs4_Rep20_S_empty_rep_storageE to i8*)
  br i1 %896, label %_ZNSsD1Ev.exit90, label %897, !prof !15

; <label>:897                                     ; preds = %_ZN8TestCaseD2Ev.exit87
  %898 = getelementptr inbounds i8* %893, i64 -8
  %899 = bitcast i8* %898 to i32*
  br i1 icmp ne (i8* bitcast (i32 (i32*, void (i8*)*)* @__pthread_key_create to i8*), i8* null), label %900, label %904

; <label>:900                                     ; preds = %897
  %901 = bitcast i32* %123 to i8*
  call void @llvm.lifetime.start(i64 4, i8* %901)
  %902 = atomicrmw volatile add i32* %899, i32 -1 acq_rel
  store i32 %902, i32* %123, align 4
  %903 = load volatile i32* %123, align 4
  call void @llvm.lifetime.end(i64 4, i8* %901)
  br label %_ZN9__gnu_cxxL27__exchange_and_add_dispatchEPii.exit.i.i.i89

; <label>:904                                     ; preds = %897
  %905 = load i32* %899, align 4, !tbaa !16
  %906 = add nsw i32 %905, -1
  store i32 %906, i32* %899, align 4, !tbaa !16
  br label %_ZN9__gnu_cxxL27__exchange_and_add_dispatchEPii.exit.i.i.i89

_ZN9__gnu_cxxL27__exchange_and_add_dispatchEPii.exit.i.i.i89: ; preds = %904, %900
  %.0.i.i.i.i88 = phi i32 [ %903, %900 ], [ %905, %904 ]
  %907 = icmp slt i32 %.0.i.i.i.i88, 1
  br i1 %907, label %908, label %_ZNSsD1Ev.exit90

; <label>:908                                     ; preds = %_ZN9__gnu_cxxL27__exchange_and_add_dispatchEPii.exit.i.i.i89
  call void @_ZNSs4_Rep10_M_destroyERKSaIcE(%"struct.std::basic_string<char, std::char_traits<char>, std::allocator<char> >::_Rep"* %895, %"class.std::allocator.0"* %124) #1
  br label %_ZNSsD1Ev.exit90

_ZNSsD1Ev.exit90:                                 ; preds = %908, %_ZN9__gnu_cxxL27__exchange_and_add_dispatchEPii.exit.i.i.i89, %_ZN8TestCaseD2Ev.exit87
  call void @llvm.lifetime.end(i64 1, i8* %891) #1
  %909 = getelementptr inbounds %"class.std::allocator.0"* %122, i64 0, i32 0
  call void @llvm.lifetime.start(i64 1, i8* %909) #1
  %910 = getelementptr inbounds %"class.std::basic_string"* %208, i64 0, i32 0, i32 0
  %911 = load i8** %910, align 8, !tbaa !14
  %912 = getelementptr inbounds i8* %911, i64 -24
  %913 = bitcast i8* %912 to %"struct.std::basic_string<char, std::char_traits<char>, std::allocator<char> >::_Rep"*
  %914 = icmp eq i8* %912, bitcast ([0 x i64]* @_ZNSs4_Rep20_S_empty_rep_storageE to i8*)
  br i1 %914, label %_ZNSsD1Ev.exit93, label %915, !prof !15

; <label>:915                                     ; preds = %_ZNSsD1Ev.exit90
  %916 = getelementptr inbounds i8* %911, i64 -8
  %917 = bitcast i8* %916 to i32*
  br i1 icmp ne (i8* bitcast (i32 (i32*, void (i8*)*)* @__pthread_key_create to i8*), i8* null), label %918, label %922

; <label>:918                                     ; preds = %915
  %919 = bitcast i32* %121 to i8*
  call void @llvm.lifetime.start(i64 4, i8* %919)
  %920 = atomicrmw volatile add i32* %917, i32 -1 acq_rel
  store i32 %920, i32* %121, align 4
  %921 = load volatile i32* %121, align 4
  call void @llvm.lifetime.end(i64 4, i8* %919)
  br label %_ZN9__gnu_cxxL27__exchange_and_add_dispatchEPii.exit.i.i.i92

; <label>:922                                     ; preds = %915
  %923 = load i32* %917, align 4, !tbaa !16
  %924 = add nsw i32 %923, -1
  store i32 %924, i32* %917, align 4, !tbaa !16
  br label %_ZN9__gnu_cxxL27__exchange_and_add_dispatchEPii.exit.i.i.i92

_ZN9__gnu_cxxL27__exchange_and_add_dispatchEPii.exit.i.i.i92: ; preds = %922, %918
  %.0.i.i.i.i91 = phi i32 [ %921, %918 ], [ %923, %922 ]
  %925 = icmp slt i32 %.0.i.i.i.i91, 1
  br i1 %925, label %926, label %_ZNSsD1Ev.exit93

; <label>:926                                     ; preds = %_ZN9__gnu_cxxL27__exchange_and_add_dispatchEPii.exit.i.i.i92
  call void @_ZNSs4_Rep10_M_destroyERKSaIcE(%"struct.std::basic_string<char, std::char_traits<char>, std::allocator<char> >::_Rep"* %913, %"class.std::allocator.0"* %122) #1
  br label %_ZNSsD1Ev.exit93

_ZNSsD1Ev.exit93:                                 ; preds = %926, %_ZN9__gnu_cxxL27__exchange_and_add_dispatchEPii.exit.i.i.i92, %_ZNSsD1Ev.exit90
  call void @llvm.lifetime.end(i64 1, i8* %909) #1
  call void @_ZNSsC1EPKcRKSaIcE(%"class.std::basic_string"* %213, i8* getelementptr inbounds ([7 x i8]* @.str8, i64 0, i64 0), %"class.std::allocator.0"* %214) #1
  call void @_ZNSsC1EPKcRKSaIcE(%"class.std::basic_string"* %215, i8* getelementptr inbounds ([3 x i8]* @.str10, i64 0, i64 0), %"class.std::allocator.0"* %216) #1
  %927 = getelementptr inbounds %class.TestCase* %212, i64 0, i32 0
  call void @_ZNSsC1ERKSs(%"class.std::basic_string"* %927, %"class.std::basic_string"* %213) #1
  %928 = getelementptr inbounds %class.TestCase* %212, i64 0, i32 1
  call void @_ZNSsC1ERKSs(%"class.std::basic_string"* %928, %"class.std::basic_string"* %215) #1
  %929 = getelementptr inbounds %class.TestCase* %212, i64 0, i32 2
  store i32 0, i32* %929, align 8, !tbaa !1
  %930 = getelementptr inbounds %class.TestCase* %212, i64 0, i32 3
  store i32 1, i32* %930, align 4, !tbaa !9
  %931 = load %class.TestCase** %292, align 8, !tbaa !10
  %932 = load %class.TestCase** %294, align 8, !tbaa !13
  %933 = icmp eq %class.TestCase* %931, %932
  br i1 %933, label %945, label %934

; <label>:934                                     ; preds = %_ZNSsD1Ev.exit93
  %935 = icmp eq %class.TestCase* %931, null
  br i1 %935, label %_ZN9__gnu_cxx14__alloc_traitsISaI8TestCaseEE9constructIS1_EEvRS2_PS1_RKT_.exit.i95, label %936

; <label>:936                                     ; preds = %934
  %937 = getelementptr inbounds %class.TestCase* %931, i64 0, i32 0
  call void @_ZNSsC1ERKSs(%"class.std::basic_string"* %937, %"class.std::basic_string"* %927) #1
  %938 = getelementptr inbounds %class.TestCase* %931, i64 0, i32 1
  call void @_ZNSsC1ERKSs(%"class.std::basic_string"* %938, %"class.std::basic_string"* %928) #1
  %939 = getelementptr inbounds %class.TestCase* %931, i64 0, i32 2
  %940 = bitcast i32* %929 to i64*
  %941 = bitcast i32* %939 to i64*
  %942 = load i64* %940, align 8
  store i64 %942, i64* %941, align 4
  %.pre.i94 = load %class.TestCase** %292, align 8, !tbaa !10
  br label %_ZN9__gnu_cxx14__alloc_traitsISaI8TestCaseEE9constructIS1_EEvRS2_PS1_RKT_.exit.i95

_ZN9__gnu_cxx14__alloc_traitsISaI8TestCaseEE9constructIS1_EEvRS2_PS1_RKT_.exit.i95: ; preds = %936, %934
  %943 = phi %class.TestCase* [ null, %934 ], [ %.pre.i94, %936 ]
  %944 = getelementptr inbounds %class.TestCase* %943, i64 1
  store %class.TestCase* %944, %class.TestCase** %292, align 8, !tbaa !10
  br label %_ZNSt6vectorI8TestCaseSaIS0_EE9push_backERKS0_.exit96

; <label>:945                                     ; preds = %_ZNSsD1Ev.exit93
  call void @_ZNSt6vectorI8TestCaseSaIS0_EE13_M_insert_auxEN9__gnu_cxx17__normal_iteratorIPS0_S2_EERKS0_(%"class.std::vector"* %testCases, %class.TestCase* %931, %class.TestCase* %212) #1
  br label %_ZNSt6vectorI8TestCaseSaIS0_EE9push_backERKS0_.exit96

_ZNSt6vectorI8TestCaseSaIS0_EE9push_backERKS0_.exit96: ; preds = %945, %_ZN9__gnu_cxx14__alloc_traitsISaI8TestCaseEE9constructIS1_EEvRS2_PS1_RKT_.exit.i95
  %946 = getelementptr inbounds %"class.std::allocator.0"* %120, i64 0, i32 0
  call void @llvm.lifetime.start(i64 1, i8* %946) #1
  %947 = getelementptr inbounds %class.TestCase* %212, i64 0, i32 1, i32 0, i32 0
  %948 = load i8** %947, align 8, !tbaa !14
  %949 = getelementptr inbounds i8* %948, i64 -24
  %950 = bitcast i8* %949 to %"struct.std::basic_string<char, std::char_traits<char>, std::allocator<char> >::_Rep"*
  %951 = icmp eq i8* %949, bitcast ([0 x i64]* @_ZNSs4_Rep20_S_empty_rep_storageE to i8*)
  br i1 %951, label %_ZNSsD1Ev.exit.i99, label %952, !prof !15

; <label>:952                                     ; preds = %_ZNSt6vectorI8TestCaseSaIS0_EE9push_backERKS0_.exit96
  %953 = getelementptr inbounds i8* %948, i64 -8
  %954 = bitcast i8* %953 to i32*
  br i1 icmp ne (i8* bitcast (i32 (i32*, void (i8*)*)* @__pthread_key_create to i8*), i8* null), label %955, label %959

; <label>:955                                     ; preds = %952
  %956 = bitcast i32* %119 to i8*
  call void @llvm.lifetime.start(i64 4, i8* %956)
  %957 = atomicrmw volatile add i32* %954, i32 -1 acq_rel
  store i32 %957, i32* %119, align 4
  %958 = load volatile i32* %119, align 4
  call void @llvm.lifetime.end(i64 4, i8* %956)
  br label %_ZN9__gnu_cxxL27__exchange_and_add_dispatchEPii.exit.i.i.i.i98

; <label>:959                                     ; preds = %952
  %960 = load i32* %954, align 4, !tbaa !16
  %961 = add nsw i32 %960, -1
  store i32 %961, i32* %954, align 4, !tbaa !16
  br label %_ZN9__gnu_cxxL27__exchange_and_add_dispatchEPii.exit.i.i.i.i98

_ZN9__gnu_cxxL27__exchange_and_add_dispatchEPii.exit.i.i.i.i98: ; preds = %959, %955
  %.0.i.i.i.i.i97 = phi i32 [ %958, %955 ], [ %960, %959 ]
  %962 = icmp slt i32 %.0.i.i.i.i.i97, 1
  br i1 %962, label %963, label %_ZNSsD1Ev.exit.i99

; <label>:963                                     ; preds = %_ZN9__gnu_cxxL27__exchange_and_add_dispatchEPii.exit.i.i.i.i98
  call void @_ZNSs4_Rep10_M_destroyERKSaIcE(%"struct.std::basic_string<char, std::char_traits<char>, std::allocator<char> >::_Rep"* %950, %"class.std::allocator.0"* %120) #1
  br label %_ZNSsD1Ev.exit.i99

_ZNSsD1Ev.exit.i99:                               ; preds = %963, %_ZN9__gnu_cxxL27__exchange_and_add_dispatchEPii.exit.i.i.i.i98, %_ZNSt6vectorI8TestCaseSaIS0_EE9push_backERKS0_.exit96
  call void @llvm.lifetime.end(i64 1, i8* %946) #1
  %964 = getelementptr inbounds %"class.std::allocator.0"* %118, i64 0, i32 0
  call void @llvm.lifetime.start(i64 1, i8* %964) #1
  %965 = getelementptr inbounds %class.TestCase* %212, i64 0, i32 0, i32 0, i32 0
  %966 = load i8** %965, align 8, !tbaa !14
  %967 = getelementptr inbounds i8* %966, i64 -24
  %968 = bitcast i8* %967 to %"struct.std::basic_string<char, std::char_traits<char>, std::allocator<char> >::_Rep"*
  %969 = icmp eq i8* %967, bitcast ([0 x i64]* @_ZNSs4_Rep20_S_empty_rep_storageE to i8*)
  br i1 %969, label %_ZN8TestCaseD2Ev.exit102, label %970, !prof !15

; <label>:970                                     ; preds = %_ZNSsD1Ev.exit.i99
  %971 = getelementptr inbounds i8* %966, i64 -8
  %972 = bitcast i8* %971 to i32*
  br i1 icmp ne (i8* bitcast (i32 (i32*, void (i8*)*)* @__pthread_key_create to i8*), i8* null), label %973, label %977

; <label>:973                                     ; preds = %970
  %974 = bitcast i32* %117 to i8*
  call void @llvm.lifetime.start(i64 4, i8* %974)
  %975 = atomicrmw volatile add i32* %972, i32 -1 acq_rel
  store i32 %975, i32* %117, align 4
  %976 = load volatile i32* %117, align 4
  call void @llvm.lifetime.end(i64 4, i8* %974)
  br label %_ZN9__gnu_cxxL27__exchange_and_add_dispatchEPii.exit.i.i.i2.i101

; <label>:977                                     ; preds = %970
  %978 = load i32* %972, align 4, !tbaa !16
  %979 = add nsw i32 %978, -1
  store i32 %979, i32* %972, align 4, !tbaa !16
  br label %_ZN9__gnu_cxxL27__exchange_and_add_dispatchEPii.exit.i.i.i2.i101

_ZN9__gnu_cxxL27__exchange_and_add_dispatchEPii.exit.i.i.i2.i101: ; preds = %977, %973
  %.0.i.i.i.i1.i100 = phi i32 [ %976, %973 ], [ %978, %977 ]
  %980 = icmp slt i32 %.0.i.i.i.i1.i100, 1
  br i1 %980, label %981, label %_ZN8TestCaseD2Ev.exit102

; <label>:981                                     ; preds = %_ZN9__gnu_cxxL27__exchange_and_add_dispatchEPii.exit.i.i.i2.i101
  call void @_ZNSs4_Rep10_M_destroyERKSaIcE(%"struct.std::basic_string<char, std::char_traits<char>, std::allocator<char> >::_Rep"* %968, %"class.std::allocator.0"* %118) #1
  br label %_ZN8TestCaseD2Ev.exit102

_ZN8TestCaseD2Ev.exit102:                         ; preds = %981, %_ZN9__gnu_cxxL27__exchange_and_add_dispatchEPii.exit.i.i.i2.i101, %_ZNSsD1Ev.exit.i99
  call void @llvm.lifetime.end(i64 1, i8* %964) #1
  %982 = getelementptr inbounds %"class.std::allocator.0"* %116, i64 0, i32 0
  call void @llvm.lifetime.start(i64 1, i8* %982) #1
  %983 = getelementptr inbounds %"class.std::basic_string"* %215, i64 0, i32 0, i32 0
  %984 = load i8** %983, align 8, !tbaa !14
  %985 = getelementptr inbounds i8* %984, i64 -24
  %986 = bitcast i8* %985 to %"struct.std::basic_string<char, std::char_traits<char>, std::allocator<char> >::_Rep"*
  %987 = icmp eq i8* %985, bitcast ([0 x i64]* @_ZNSs4_Rep20_S_empty_rep_storageE to i8*)
  br i1 %987, label %_ZNSsD1Ev.exit105, label %988, !prof !15

; <label>:988                                     ; preds = %_ZN8TestCaseD2Ev.exit102
  %989 = getelementptr inbounds i8* %984, i64 -8
  %990 = bitcast i8* %989 to i32*
  br i1 icmp ne (i8* bitcast (i32 (i32*, void (i8*)*)* @__pthread_key_create to i8*), i8* null), label %991, label %995

; <label>:991                                     ; preds = %988
  %992 = bitcast i32* %115 to i8*
  call void @llvm.lifetime.start(i64 4, i8* %992)
  %993 = atomicrmw volatile add i32* %990, i32 -1 acq_rel
  store i32 %993, i32* %115, align 4
  %994 = load volatile i32* %115, align 4
  call void @llvm.lifetime.end(i64 4, i8* %992)
  br label %_ZN9__gnu_cxxL27__exchange_and_add_dispatchEPii.exit.i.i.i104

; <label>:995                                     ; preds = %988
  %996 = load i32* %990, align 4, !tbaa !16
  %997 = add nsw i32 %996, -1
  store i32 %997, i32* %990, align 4, !tbaa !16
  br label %_ZN9__gnu_cxxL27__exchange_and_add_dispatchEPii.exit.i.i.i104

_ZN9__gnu_cxxL27__exchange_and_add_dispatchEPii.exit.i.i.i104: ; preds = %995, %991
  %.0.i.i.i.i103 = phi i32 [ %994, %991 ], [ %996, %995 ]
  %998 = icmp slt i32 %.0.i.i.i.i103, 1
  br i1 %998, label %999, label %_ZNSsD1Ev.exit105

; <label>:999                                     ; preds = %_ZN9__gnu_cxxL27__exchange_and_add_dispatchEPii.exit.i.i.i104
  call void @_ZNSs4_Rep10_M_destroyERKSaIcE(%"struct.std::basic_string<char, std::char_traits<char>, std::allocator<char> >::_Rep"* %986, %"class.std::allocator.0"* %116) #1
  br label %_ZNSsD1Ev.exit105

_ZNSsD1Ev.exit105:                                ; preds = %999, %_ZN9__gnu_cxxL27__exchange_and_add_dispatchEPii.exit.i.i.i104, %_ZN8TestCaseD2Ev.exit102
  call void @llvm.lifetime.end(i64 1, i8* %982) #1
  %1000 = getelementptr inbounds %"class.std::allocator.0"* %114, i64 0, i32 0
  call void @llvm.lifetime.start(i64 1, i8* %1000) #1
  %1001 = getelementptr inbounds %"class.std::basic_string"* %213, i64 0, i32 0, i32 0
  %1002 = load i8** %1001, align 8, !tbaa !14
  %1003 = getelementptr inbounds i8* %1002, i64 -24
  %1004 = bitcast i8* %1003 to %"struct.std::basic_string<char, std::char_traits<char>, std::allocator<char> >::_Rep"*
  %1005 = icmp eq i8* %1003, bitcast ([0 x i64]* @_ZNSs4_Rep20_S_empty_rep_storageE to i8*)
  br i1 %1005, label %_ZNSsD1Ev.exit108, label %1006, !prof !15

; <label>:1006                                    ; preds = %_ZNSsD1Ev.exit105
  %1007 = getelementptr inbounds i8* %1002, i64 -8
  %1008 = bitcast i8* %1007 to i32*
  br i1 icmp ne (i8* bitcast (i32 (i32*, void (i8*)*)* @__pthread_key_create to i8*), i8* null), label %1009, label %1013

; <label>:1009                                    ; preds = %1006
  %1010 = bitcast i32* %113 to i8*
  call void @llvm.lifetime.start(i64 4, i8* %1010)
  %1011 = atomicrmw volatile add i32* %1008, i32 -1 acq_rel
  store i32 %1011, i32* %113, align 4
  %1012 = load volatile i32* %113, align 4
  call void @llvm.lifetime.end(i64 4, i8* %1010)
  br label %_ZN9__gnu_cxxL27__exchange_and_add_dispatchEPii.exit.i.i.i107

; <label>:1013                                    ; preds = %1006
  %1014 = load i32* %1008, align 4, !tbaa !16
  %1015 = add nsw i32 %1014, -1
  store i32 %1015, i32* %1008, align 4, !tbaa !16
  br label %_ZN9__gnu_cxxL27__exchange_and_add_dispatchEPii.exit.i.i.i107

_ZN9__gnu_cxxL27__exchange_and_add_dispatchEPii.exit.i.i.i107: ; preds = %1013, %1009
  %.0.i.i.i.i106 = phi i32 [ %1012, %1009 ], [ %1014, %1013 ]
  %1016 = icmp slt i32 %.0.i.i.i.i106, 1
  br i1 %1016, label %1017, label %_ZNSsD1Ev.exit108

; <label>:1017                                    ; preds = %_ZN9__gnu_cxxL27__exchange_and_add_dispatchEPii.exit.i.i.i107
  call void @_ZNSs4_Rep10_M_destroyERKSaIcE(%"struct.std::basic_string<char, std::char_traits<char>, std::allocator<char> >::_Rep"* %1004, %"class.std::allocator.0"* %114) #1
  br label %_ZNSsD1Ev.exit108

_ZNSsD1Ev.exit108:                                ; preds = %1017, %_ZN9__gnu_cxxL27__exchange_and_add_dispatchEPii.exit.i.i.i107, %_ZNSsD1Ev.exit105
  call void @llvm.lifetime.end(i64 1, i8* %1000) #1
  call void @_ZNSsC1EPKcRKSaIcE(%"class.std::basic_string"* %218, i8* getelementptr inbounds ([8 x i8]* @.str11, i64 0, i64 0), %"class.std::allocator.0"* %219) #1
  call void @_ZNSsC1EPKcRKSaIcE(%"class.std::basic_string"* %220, i8* getelementptr inbounds ([3 x i8]* @.str10, i64 0, i64 0), %"class.std::allocator.0"* %221) #1
  %1018 = getelementptr inbounds %class.TestCase* %217, i64 0, i32 0
  call void @_ZNSsC1ERKSs(%"class.std::basic_string"* %1018, %"class.std::basic_string"* %218) #1
  %1019 = getelementptr inbounds %class.TestCase* %217, i64 0, i32 1
  call void @_ZNSsC1ERKSs(%"class.std::basic_string"* %1019, %"class.std::basic_string"* %220) #1
  %1020 = getelementptr inbounds %class.TestCase* %217, i64 0, i32 2
  store i32 0, i32* %1020, align 8, !tbaa !1
  %1021 = getelementptr inbounds %class.TestCase* %217, i64 0, i32 3
  store i32 0, i32* %1021, align 4, !tbaa !9
  %1022 = load %class.TestCase** %292, align 8, !tbaa !10
  %1023 = load %class.TestCase** %294, align 8, !tbaa !13
  %1024 = icmp eq %class.TestCase* %1022, %1023
  br i1 %1024, label %1036, label %1025

; <label>:1025                                    ; preds = %_ZNSsD1Ev.exit108
  %1026 = icmp eq %class.TestCase* %1022, null
  br i1 %1026, label %_ZN9__gnu_cxx14__alloc_traitsISaI8TestCaseEE9constructIS1_EEvRS2_PS1_RKT_.exit.i110, label %1027

; <label>:1027                                    ; preds = %1025
  %1028 = getelementptr inbounds %class.TestCase* %1022, i64 0, i32 0
  call void @_ZNSsC1ERKSs(%"class.std::basic_string"* %1028, %"class.std::basic_string"* %1018) #1
  %1029 = getelementptr inbounds %class.TestCase* %1022, i64 0, i32 1
  call void @_ZNSsC1ERKSs(%"class.std::basic_string"* %1029, %"class.std::basic_string"* %1019) #1
  %1030 = getelementptr inbounds %class.TestCase* %1022, i64 0, i32 2
  %1031 = bitcast i32* %1020 to i64*
  %1032 = bitcast i32* %1030 to i64*
  %1033 = load i64* %1031, align 8
  store i64 %1033, i64* %1032, align 4
  %.pre.i109 = load %class.TestCase** %292, align 8, !tbaa !10
  br label %_ZN9__gnu_cxx14__alloc_traitsISaI8TestCaseEE9constructIS1_EEvRS2_PS1_RKT_.exit.i110

_ZN9__gnu_cxx14__alloc_traitsISaI8TestCaseEE9constructIS1_EEvRS2_PS1_RKT_.exit.i110: ; preds = %1027, %1025
  %1034 = phi %class.TestCase* [ null, %1025 ], [ %.pre.i109, %1027 ]
  %1035 = getelementptr inbounds %class.TestCase* %1034, i64 1
  store %class.TestCase* %1035, %class.TestCase** %292, align 8, !tbaa !10
  br label %_ZNSt6vectorI8TestCaseSaIS0_EE9push_backERKS0_.exit111

; <label>:1036                                    ; preds = %_ZNSsD1Ev.exit108
  call void @_ZNSt6vectorI8TestCaseSaIS0_EE13_M_insert_auxEN9__gnu_cxx17__normal_iteratorIPS0_S2_EERKS0_(%"class.std::vector"* %testCases, %class.TestCase* %1022, %class.TestCase* %217) #1
  br label %_ZNSt6vectorI8TestCaseSaIS0_EE9push_backERKS0_.exit111

_ZNSt6vectorI8TestCaseSaIS0_EE9push_backERKS0_.exit111: ; preds = %1036, %_ZN9__gnu_cxx14__alloc_traitsISaI8TestCaseEE9constructIS1_EEvRS2_PS1_RKT_.exit.i110
  %1037 = getelementptr inbounds %"class.std::allocator.0"* %112, i64 0, i32 0
  call void @llvm.lifetime.start(i64 1, i8* %1037) #1
  %1038 = getelementptr inbounds %class.TestCase* %217, i64 0, i32 1, i32 0, i32 0
  %1039 = load i8** %1038, align 8, !tbaa !14
  %1040 = getelementptr inbounds i8* %1039, i64 -24
  %1041 = bitcast i8* %1040 to %"struct.std::basic_string<char, std::char_traits<char>, std::allocator<char> >::_Rep"*
  %1042 = icmp eq i8* %1040, bitcast ([0 x i64]* @_ZNSs4_Rep20_S_empty_rep_storageE to i8*)
  br i1 %1042, label %_ZNSsD1Ev.exit.i114, label %1043, !prof !15

; <label>:1043                                    ; preds = %_ZNSt6vectorI8TestCaseSaIS0_EE9push_backERKS0_.exit111
  %1044 = getelementptr inbounds i8* %1039, i64 -8
  %1045 = bitcast i8* %1044 to i32*
  br i1 icmp ne (i8* bitcast (i32 (i32*, void (i8*)*)* @__pthread_key_create to i8*), i8* null), label %1046, label %1050

; <label>:1046                                    ; preds = %1043
  %1047 = bitcast i32* %111 to i8*
  call void @llvm.lifetime.start(i64 4, i8* %1047)
  %1048 = atomicrmw volatile add i32* %1045, i32 -1 acq_rel
  store i32 %1048, i32* %111, align 4
  %1049 = load volatile i32* %111, align 4
  call void @llvm.lifetime.end(i64 4, i8* %1047)
  br label %_ZN9__gnu_cxxL27__exchange_and_add_dispatchEPii.exit.i.i.i.i113

; <label>:1050                                    ; preds = %1043
  %1051 = load i32* %1045, align 4, !tbaa !16
  %1052 = add nsw i32 %1051, -1
  store i32 %1052, i32* %1045, align 4, !tbaa !16
  br label %_ZN9__gnu_cxxL27__exchange_and_add_dispatchEPii.exit.i.i.i.i113

_ZN9__gnu_cxxL27__exchange_and_add_dispatchEPii.exit.i.i.i.i113: ; preds = %1050, %1046
  %.0.i.i.i.i.i112 = phi i32 [ %1049, %1046 ], [ %1051, %1050 ]
  %1053 = icmp slt i32 %.0.i.i.i.i.i112, 1
  br i1 %1053, label %1054, label %_ZNSsD1Ev.exit.i114

; <label>:1054                                    ; preds = %_ZN9__gnu_cxxL27__exchange_and_add_dispatchEPii.exit.i.i.i.i113
  call void @_ZNSs4_Rep10_M_destroyERKSaIcE(%"struct.std::basic_string<char, std::char_traits<char>, std::allocator<char> >::_Rep"* %1041, %"class.std::allocator.0"* %112) #1
  br label %_ZNSsD1Ev.exit.i114

_ZNSsD1Ev.exit.i114:                              ; preds = %1054, %_ZN9__gnu_cxxL27__exchange_and_add_dispatchEPii.exit.i.i.i.i113, %_ZNSt6vectorI8TestCaseSaIS0_EE9push_backERKS0_.exit111
  call void @llvm.lifetime.end(i64 1, i8* %1037) #1
  %1055 = getelementptr inbounds %"class.std::allocator.0"* %110, i64 0, i32 0
  call void @llvm.lifetime.start(i64 1, i8* %1055) #1
  %1056 = getelementptr inbounds %class.TestCase* %217, i64 0, i32 0, i32 0, i32 0
  %1057 = load i8** %1056, align 8, !tbaa !14
  %1058 = getelementptr inbounds i8* %1057, i64 -24
  %1059 = bitcast i8* %1058 to %"struct.std::basic_string<char, std::char_traits<char>, std::allocator<char> >::_Rep"*
  %1060 = icmp eq i8* %1058, bitcast ([0 x i64]* @_ZNSs4_Rep20_S_empty_rep_storageE to i8*)
  br i1 %1060, label %_ZN8TestCaseD2Ev.exit117, label %1061, !prof !15

; <label>:1061                                    ; preds = %_ZNSsD1Ev.exit.i114
  %1062 = getelementptr inbounds i8* %1057, i64 -8
  %1063 = bitcast i8* %1062 to i32*
  br i1 icmp ne (i8* bitcast (i32 (i32*, void (i8*)*)* @__pthread_key_create to i8*), i8* null), label %1064, label %1068

; <label>:1064                                    ; preds = %1061
  %1065 = bitcast i32* %109 to i8*
  call void @llvm.lifetime.start(i64 4, i8* %1065)
  %1066 = atomicrmw volatile add i32* %1063, i32 -1 acq_rel
  store i32 %1066, i32* %109, align 4
  %1067 = load volatile i32* %109, align 4
  call void @llvm.lifetime.end(i64 4, i8* %1065)
  br label %_ZN9__gnu_cxxL27__exchange_and_add_dispatchEPii.exit.i.i.i2.i116

; <label>:1068                                    ; preds = %1061
  %1069 = load i32* %1063, align 4, !tbaa !16
  %1070 = add nsw i32 %1069, -1
  store i32 %1070, i32* %1063, align 4, !tbaa !16
  br label %_ZN9__gnu_cxxL27__exchange_and_add_dispatchEPii.exit.i.i.i2.i116

_ZN9__gnu_cxxL27__exchange_and_add_dispatchEPii.exit.i.i.i2.i116: ; preds = %1068, %1064
  %.0.i.i.i.i1.i115 = phi i32 [ %1067, %1064 ], [ %1069, %1068 ]
  %1071 = icmp slt i32 %.0.i.i.i.i1.i115, 1
  br i1 %1071, label %1072, label %_ZN8TestCaseD2Ev.exit117

; <label>:1072                                    ; preds = %_ZN9__gnu_cxxL27__exchange_and_add_dispatchEPii.exit.i.i.i2.i116
  call void @_ZNSs4_Rep10_M_destroyERKSaIcE(%"struct.std::basic_string<char, std::char_traits<char>, std::allocator<char> >::_Rep"* %1059, %"class.std::allocator.0"* %110) #1
  br label %_ZN8TestCaseD2Ev.exit117

_ZN8TestCaseD2Ev.exit117:                         ; preds = %1072, %_ZN9__gnu_cxxL27__exchange_and_add_dispatchEPii.exit.i.i.i2.i116, %_ZNSsD1Ev.exit.i114
  call void @llvm.lifetime.end(i64 1, i8* %1055) #1
  %1073 = getelementptr inbounds %"class.std::allocator.0"* %108, i64 0, i32 0
  call void @llvm.lifetime.start(i64 1, i8* %1073) #1
  %1074 = getelementptr inbounds %"class.std::basic_string"* %220, i64 0, i32 0, i32 0
  %1075 = load i8** %1074, align 8, !tbaa !14
  %1076 = getelementptr inbounds i8* %1075, i64 -24
  %1077 = bitcast i8* %1076 to %"struct.std::basic_string<char, std::char_traits<char>, std::allocator<char> >::_Rep"*
  %1078 = icmp eq i8* %1076, bitcast ([0 x i64]* @_ZNSs4_Rep20_S_empty_rep_storageE to i8*)
  br i1 %1078, label %_ZNSsD1Ev.exit120, label %1079, !prof !15

; <label>:1079                                    ; preds = %_ZN8TestCaseD2Ev.exit117
  %1080 = getelementptr inbounds i8* %1075, i64 -8
  %1081 = bitcast i8* %1080 to i32*
  br i1 icmp ne (i8* bitcast (i32 (i32*, void (i8*)*)* @__pthread_key_create to i8*), i8* null), label %1082, label %1086

; <label>:1082                                    ; preds = %1079
  %1083 = bitcast i32* %107 to i8*
  call void @llvm.lifetime.start(i64 4, i8* %1083)
  %1084 = atomicrmw volatile add i32* %1081, i32 -1 acq_rel
  store i32 %1084, i32* %107, align 4
  %1085 = load volatile i32* %107, align 4
  call void @llvm.lifetime.end(i64 4, i8* %1083)
  br label %_ZN9__gnu_cxxL27__exchange_and_add_dispatchEPii.exit.i.i.i119

; <label>:1086                                    ; preds = %1079
  %1087 = load i32* %1081, align 4, !tbaa !16
  %1088 = add nsw i32 %1087, -1
  store i32 %1088, i32* %1081, align 4, !tbaa !16
  br label %_ZN9__gnu_cxxL27__exchange_and_add_dispatchEPii.exit.i.i.i119

_ZN9__gnu_cxxL27__exchange_and_add_dispatchEPii.exit.i.i.i119: ; preds = %1086, %1082
  %.0.i.i.i.i118 = phi i32 [ %1085, %1082 ], [ %1087, %1086 ]
  %1089 = icmp slt i32 %.0.i.i.i.i118, 1
  br i1 %1089, label %1090, label %_ZNSsD1Ev.exit120

; <label>:1090                                    ; preds = %_ZN9__gnu_cxxL27__exchange_and_add_dispatchEPii.exit.i.i.i119
  call void @_ZNSs4_Rep10_M_destroyERKSaIcE(%"struct.std::basic_string<char, std::char_traits<char>, std::allocator<char> >::_Rep"* %1077, %"class.std::allocator.0"* %108) #1
  br label %_ZNSsD1Ev.exit120

_ZNSsD1Ev.exit120:                                ; preds = %1090, %_ZN9__gnu_cxxL27__exchange_and_add_dispatchEPii.exit.i.i.i119, %_ZN8TestCaseD2Ev.exit117
  call void @llvm.lifetime.end(i64 1, i8* %1073) #1
  %1091 = getelementptr inbounds %"class.std::allocator.0"* %106, i64 0, i32 0
  call void @llvm.lifetime.start(i64 1, i8* %1091) #1
  %1092 = getelementptr inbounds %"class.std::basic_string"* %218, i64 0, i32 0, i32 0
  %1093 = load i8** %1092, align 8, !tbaa !14
  %1094 = getelementptr inbounds i8* %1093, i64 -24
  %1095 = bitcast i8* %1094 to %"struct.std::basic_string<char, std::char_traits<char>, std::allocator<char> >::_Rep"*
  %1096 = icmp eq i8* %1094, bitcast ([0 x i64]* @_ZNSs4_Rep20_S_empty_rep_storageE to i8*)
  br i1 %1096, label %_ZNSsD1Ev.exit123, label %1097, !prof !15

; <label>:1097                                    ; preds = %_ZNSsD1Ev.exit120
  %1098 = getelementptr inbounds i8* %1093, i64 -8
  %1099 = bitcast i8* %1098 to i32*
  br i1 icmp ne (i8* bitcast (i32 (i32*, void (i8*)*)* @__pthread_key_create to i8*), i8* null), label %1100, label %1104

; <label>:1100                                    ; preds = %1097
  %1101 = bitcast i32* %105 to i8*
  call void @llvm.lifetime.start(i64 4, i8* %1101)
  %1102 = atomicrmw volatile add i32* %1099, i32 -1 acq_rel
  store i32 %1102, i32* %105, align 4
  %1103 = load volatile i32* %105, align 4
  call void @llvm.lifetime.end(i64 4, i8* %1101)
  br label %_ZN9__gnu_cxxL27__exchange_and_add_dispatchEPii.exit.i.i.i122

; <label>:1104                                    ; preds = %1097
  %1105 = load i32* %1099, align 4, !tbaa !16
  %1106 = add nsw i32 %1105, -1
  store i32 %1106, i32* %1099, align 4, !tbaa !16
  br label %_ZN9__gnu_cxxL27__exchange_and_add_dispatchEPii.exit.i.i.i122

_ZN9__gnu_cxxL27__exchange_and_add_dispatchEPii.exit.i.i.i122: ; preds = %1104, %1100
  %.0.i.i.i.i121 = phi i32 [ %1103, %1100 ], [ %1105, %1104 ]
  %1107 = icmp slt i32 %.0.i.i.i.i121, 1
  br i1 %1107, label %1108, label %_ZNSsD1Ev.exit123

; <label>:1108                                    ; preds = %_ZN9__gnu_cxxL27__exchange_and_add_dispatchEPii.exit.i.i.i122
  call void @_ZNSs4_Rep10_M_destroyERKSaIcE(%"struct.std::basic_string<char, std::char_traits<char>, std::allocator<char> >::_Rep"* %1095, %"class.std::allocator.0"* %106) #1
  br label %_ZNSsD1Ev.exit123

_ZNSsD1Ev.exit123:                                ; preds = %1108, %_ZN9__gnu_cxxL27__exchange_and_add_dispatchEPii.exit.i.i.i122, %_ZNSsD1Ev.exit120
  call void @llvm.lifetime.end(i64 1, i8* %1091) #1
  call void @_ZNSsC1EPKcRKSaIcE(%"class.std::basic_string"* %223, i8* getelementptr inbounds ([4 x i8]* @.str12, i64 0, i64 0), %"class.std::allocator.0"* %224) #1
  call void @_ZNSsC1EPKcRKSaIcE(%"class.std::basic_string"* %225, i8* getelementptr inbounds ([9 x i8]* @.str1, i64 0, i64 0), %"class.std::allocator.0"* %226) #1
  %1109 = getelementptr inbounds %class.TestCase* %222, i64 0, i32 0
  call void @_ZNSsC1ERKSs(%"class.std::basic_string"* %1109, %"class.std::basic_string"* %223) #1
  %1110 = getelementptr inbounds %class.TestCase* %222, i64 0, i32 1
  call void @_ZNSsC1ERKSs(%"class.std::basic_string"* %1110, %"class.std::basic_string"* %225) #1
  %1111 = getelementptr inbounds %class.TestCase* %222, i64 0, i32 2
  store i32 0, i32* %1111, align 8, !tbaa !1
  %1112 = getelementptr inbounds %class.TestCase* %222, i64 0, i32 3
  store i32 1, i32* %1112, align 4, !tbaa !9
  %1113 = load %class.TestCase** %292, align 8, !tbaa !10
  %1114 = load %class.TestCase** %294, align 8, !tbaa !13
  %1115 = icmp eq %class.TestCase* %1113, %1114
  br i1 %1115, label %1127, label %1116

; <label>:1116                                    ; preds = %_ZNSsD1Ev.exit123
  %1117 = icmp eq %class.TestCase* %1113, null
  br i1 %1117, label %_ZN9__gnu_cxx14__alloc_traitsISaI8TestCaseEE9constructIS1_EEvRS2_PS1_RKT_.exit.i125, label %1118

; <label>:1118                                    ; preds = %1116
  %1119 = getelementptr inbounds %class.TestCase* %1113, i64 0, i32 0
  call void @_ZNSsC1ERKSs(%"class.std::basic_string"* %1119, %"class.std::basic_string"* %1109) #1
  %1120 = getelementptr inbounds %class.TestCase* %1113, i64 0, i32 1
  call void @_ZNSsC1ERKSs(%"class.std::basic_string"* %1120, %"class.std::basic_string"* %1110) #1
  %1121 = getelementptr inbounds %class.TestCase* %1113, i64 0, i32 2
  %1122 = bitcast i32* %1111 to i64*
  %1123 = bitcast i32* %1121 to i64*
  %1124 = load i64* %1122, align 8
  store i64 %1124, i64* %1123, align 4
  %.pre.i124 = load %class.TestCase** %292, align 8, !tbaa !10
  br label %_ZN9__gnu_cxx14__alloc_traitsISaI8TestCaseEE9constructIS1_EEvRS2_PS1_RKT_.exit.i125

_ZN9__gnu_cxx14__alloc_traitsISaI8TestCaseEE9constructIS1_EEvRS2_PS1_RKT_.exit.i125: ; preds = %1118, %1116
  %1125 = phi %class.TestCase* [ null, %1116 ], [ %.pre.i124, %1118 ]
  %1126 = getelementptr inbounds %class.TestCase* %1125, i64 1
  store %class.TestCase* %1126, %class.TestCase** %292, align 8, !tbaa !10
  br label %_ZNSt6vectorI8TestCaseSaIS0_EE9push_backERKS0_.exit126

; <label>:1127                                    ; preds = %_ZNSsD1Ev.exit123
  call void @_ZNSt6vectorI8TestCaseSaIS0_EE13_M_insert_auxEN9__gnu_cxx17__normal_iteratorIPS0_S2_EERKS0_(%"class.std::vector"* %testCases, %class.TestCase* %1113, %class.TestCase* %222) #1
  br label %_ZNSt6vectorI8TestCaseSaIS0_EE9push_backERKS0_.exit126

_ZNSt6vectorI8TestCaseSaIS0_EE9push_backERKS0_.exit126: ; preds = %1127, %_ZN9__gnu_cxx14__alloc_traitsISaI8TestCaseEE9constructIS1_EEvRS2_PS1_RKT_.exit.i125
  %1128 = getelementptr inbounds %"class.std::allocator.0"* %104, i64 0, i32 0
  call void @llvm.lifetime.start(i64 1, i8* %1128) #1
  %1129 = getelementptr inbounds %class.TestCase* %222, i64 0, i32 1, i32 0, i32 0
  %1130 = load i8** %1129, align 8, !tbaa !14
  %1131 = getelementptr inbounds i8* %1130, i64 -24
  %1132 = bitcast i8* %1131 to %"struct.std::basic_string<char, std::char_traits<char>, std::allocator<char> >::_Rep"*
  %1133 = icmp eq i8* %1131, bitcast ([0 x i64]* @_ZNSs4_Rep20_S_empty_rep_storageE to i8*)
  br i1 %1133, label %_ZNSsD1Ev.exit.i129, label %1134, !prof !15

; <label>:1134                                    ; preds = %_ZNSt6vectorI8TestCaseSaIS0_EE9push_backERKS0_.exit126
  %1135 = getelementptr inbounds i8* %1130, i64 -8
  %1136 = bitcast i8* %1135 to i32*
  br i1 icmp ne (i8* bitcast (i32 (i32*, void (i8*)*)* @__pthread_key_create to i8*), i8* null), label %1137, label %1141

; <label>:1137                                    ; preds = %1134
  %1138 = bitcast i32* %103 to i8*
  call void @llvm.lifetime.start(i64 4, i8* %1138)
  %1139 = atomicrmw volatile add i32* %1136, i32 -1 acq_rel
  store i32 %1139, i32* %103, align 4
  %1140 = load volatile i32* %103, align 4
  call void @llvm.lifetime.end(i64 4, i8* %1138)
  br label %_ZN9__gnu_cxxL27__exchange_and_add_dispatchEPii.exit.i.i.i.i128

; <label>:1141                                    ; preds = %1134
  %1142 = load i32* %1136, align 4, !tbaa !16
  %1143 = add nsw i32 %1142, -1
  store i32 %1143, i32* %1136, align 4, !tbaa !16
  br label %_ZN9__gnu_cxxL27__exchange_and_add_dispatchEPii.exit.i.i.i.i128

_ZN9__gnu_cxxL27__exchange_and_add_dispatchEPii.exit.i.i.i.i128: ; preds = %1141, %1137
  %.0.i.i.i.i.i127 = phi i32 [ %1140, %1137 ], [ %1142, %1141 ]
  %1144 = icmp slt i32 %.0.i.i.i.i.i127, 1
  br i1 %1144, label %1145, label %_ZNSsD1Ev.exit.i129

; <label>:1145                                    ; preds = %_ZN9__gnu_cxxL27__exchange_and_add_dispatchEPii.exit.i.i.i.i128
  call void @_ZNSs4_Rep10_M_destroyERKSaIcE(%"struct.std::basic_string<char, std::char_traits<char>, std::allocator<char> >::_Rep"* %1132, %"class.std::allocator.0"* %104) #1
  br label %_ZNSsD1Ev.exit.i129

_ZNSsD1Ev.exit.i129:                              ; preds = %1145, %_ZN9__gnu_cxxL27__exchange_and_add_dispatchEPii.exit.i.i.i.i128, %_ZNSt6vectorI8TestCaseSaIS0_EE9push_backERKS0_.exit126
  call void @llvm.lifetime.end(i64 1, i8* %1128) #1
  %1146 = getelementptr inbounds %"class.std::allocator.0"* %102, i64 0, i32 0
  call void @llvm.lifetime.start(i64 1, i8* %1146) #1
  %1147 = getelementptr inbounds %class.TestCase* %222, i64 0, i32 0, i32 0, i32 0
  %1148 = load i8** %1147, align 8, !tbaa !14
  %1149 = getelementptr inbounds i8* %1148, i64 -24
  %1150 = bitcast i8* %1149 to %"struct.std::basic_string<char, std::char_traits<char>, std::allocator<char> >::_Rep"*
  %1151 = icmp eq i8* %1149, bitcast ([0 x i64]* @_ZNSs4_Rep20_S_empty_rep_storageE to i8*)
  br i1 %1151, label %_ZN8TestCaseD2Ev.exit132, label %1152, !prof !15

; <label>:1152                                    ; preds = %_ZNSsD1Ev.exit.i129
  %1153 = getelementptr inbounds i8* %1148, i64 -8
  %1154 = bitcast i8* %1153 to i32*
  br i1 icmp ne (i8* bitcast (i32 (i32*, void (i8*)*)* @__pthread_key_create to i8*), i8* null), label %1155, label %1159

; <label>:1155                                    ; preds = %1152
  %1156 = bitcast i32* %101 to i8*
  call void @llvm.lifetime.start(i64 4, i8* %1156)
  %1157 = atomicrmw volatile add i32* %1154, i32 -1 acq_rel
  store i32 %1157, i32* %101, align 4
  %1158 = load volatile i32* %101, align 4
  call void @llvm.lifetime.end(i64 4, i8* %1156)
  br label %_ZN9__gnu_cxxL27__exchange_and_add_dispatchEPii.exit.i.i.i2.i131

; <label>:1159                                    ; preds = %1152
  %1160 = load i32* %1154, align 4, !tbaa !16
  %1161 = add nsw i32 %1160, -1
  store i32 %1161, i32* %1154, align 4, !tbaa !16
  br label %_ZN9__gnu_cxxL27__exchange_and_add_dispatchEPii.exit.i.i.i2.i131

_ZN9__gnu_cxxL27__exchange_and_add_dispatchEPii.exit.i.i.i2.i131: ; preds = %1159, %1155
  %.0.i.i.i.i1.i130 = phi i32 [ %1158, %1155 ], [ %1160, %1159 ]
  %1162 = icmp slt i32 %.0.i.i.i.i1.i130, 1
  br i1 %1162, label %1163, label %_ZN8TestCaseD2Ev.exit132

; <label>:1163                                    ; preds = %_ZN9__gnu_cxxL27__exchange_and_add_dispatchEPii.exit.i.i.i2.i131
  call void @_ZNSs4_Rep10_M_destroyERKSaIcE(%"struct.std::basic_string<char, std::char_traits<char>, std::allocator<char> >::_Rep"* %1150, %"class.std::allocator.0"* %102) #1
  br label %_ZN8TestCaseD2Ev.exit132

_ZN8TestCaseD2Ev.exit132:                         ; preds = %1163, %_ZN9__gnu_cxxL27__exchange_and_add_dispatchEPii.exit.i.i.i2.i131, %_ZNSsD1Ev.exit.i129
  call void @llvm.lifetime.end(i64 1, i8* %1146) #1
  %1164 = getelementptr inbounds %"class.std::allocator.0"* %100, i64 0, i32 0
  call void @llvm.lifetime.start(i64 1, i8* %1164) #1
  %1165 = getelementptr inbounds %"class.std::basic_string"* %225, i64 0, i32 0, i32 0
  %1166 = load i8** %1165, align 8, !tbaa !14
  %1167 = getelementptr inbounds i8* %1166, i64 -24
  %1168 = bitcast i8* %1167 to %"struct.std::basic_string<char, std::char_traits<char>, std::allocator<char> >::_Rep"*
  %1169 = icmp eq i8* %1167, bitcast ([0 x i64]* @_ZNSs4_Rep20_S_empty_rep_storageE to i8*)
  br i1 %1169, label %_ZNSsD1Ev.exit135, label %1170, !prof !15

; <label>:1170                                    ; preds = %_ZN8TestCaseD2Ev.exit132
  %1171 = getelementptr inbounds i8* %1166, i64 -8
  %1172 = bitcast i8* %1171 to i32*
  br i1 icmp ne (i8* bitcast (i32 (i32*, void (i8*)*)* @__pthread_key_create to i8*), i8* null), label %1173, label %1177

; <label>:1173                                    ; preds = %1170
  %1174 = bitcast i32* %99 to i8*
  call void @llvm.lifetime.start(i64 4, i8* %1174)
  %1175 = atomicrmw volatile add i32* %1172, i32 -1 acq_rel
  store i32 %1175, i32* %99, align 4
  %1176 = load volatile i32* %99, align 4
  call void @llvm.lifetime.end(i64 4, i8* %1174)
  br label %_ZN9__gnu_cxxL27__exchange_and_add_dispatchEPii.exit.i.i.i134

; <label>:1177                                    ; preds = %1170
  %1178 = load i32* %1172, align 4, !tbaa !16
  %1179 = add nsw i32 %1178, -1
  store i32 %1179, i32* %1172, align 4, !tbaa !16
  br label %_ZN9__gnu_cxxL27__exchange_and_add_dispatchEPii.exit.i.i.i134

_ZN9__gnu_cxxL27__exchange_and_add_dispatchEPii.exit.i.i.i134: ; preds = %1177, %1173
  %.0.i.i.i.i133 = phi i32 [ %1176, %1173 ], [ %1178, %1177 ]
  %1180 = icmp slt i32 %.0.i.i.i.i133, 1
  br i1 %1180, label %1181, label %_ZNSsD1Ev.exit135

; <label>:1181                                    ; preds = %_ZN9__gnu_cxxL27__exchange_and_add_dispatchEPii.exit.i.i.i134
  call void @_ZNSs4_Rep10_M_destroyERKSaIcE(%"struct.std::basic_string<char, std::char_traits<char>, std::allocator<char> >::_Rep"* %1168, %"class.std::allocator.0"* %100) #1
  br label %_ZNSsD1Ev.exit135

_ZNSsD1Ev.exit135:                                ; preds = %1181, %_ZN9__gnu_cxxL27__exchange_and_add_dispatchEPii.exit.i.i.i134, %_ZN8TestCaseD2Ev.exit132
  call void @llvm.lifetime.end(i64 1, i8* %1164) #1
  %1182 = getelementptr inbounds %"class.std::allocator.0"* %98, i64 0, i32 0
  call void @llvm.lifetime.start(i64 1, i8* %1182) #1
  %1183 = getelementptr inbounds %"class.std::basic_string"* %223, i64 0, i32 0, i32 0
  %1184 = load i8** %1183, align 8, !tbaa !14
  %1185 = getelementptr inbounds i8* %1184, i64 -24
  %1186 = bitcast i8* %1185 to %"struct.std::basic_string<char, std::char_traits<char>, std::allocator<char> >::_Rep"*
  %1187 = icmp eq i8* %1185, bitcast ([0 x i64]* @_ZNSs4_Rep20_S_empty_rep_storageE to i8*)
  br i1 %1187, label %_ZNSsD1Ev.exit138, label %1188, !prof !15

; <label>:1188                                    ; preds = %_ZNSsD1Ev.exit135
  %1189 = getelementptr inbounds i8* %1184, i64 -8
  %1190 = bitcast i8* %1189 to i32*
  br i1 icmp ne (i8* bitcast (i32 (i32*, void (i8*)*)* @__pthread_key_create to i8*), i8* null), label %1191, label %1195

; <label>:1191                                    ; preds = %1188
  %1192 = bitcast i32* %97 to i8*
  call void @llvm.lifetime.start(i64 4, i8* %1192)
  %1193 = atomicrmw volatile add i32* %1190, i32 -1 acq_rel
  store i32 %1193, i32* %97, align 4
  %1194 = load volatile i32* %97, align 4
  call void @llvm.lifetime.end(i64 4, i8* %1192)
  br label %_ZN9__gnu_cxxL27__exchange_and_add_dispatchEPii.exit.i.i.i137

; <label>:1195                                    ; preds = %1188
  %1196 = load i32* %1190, align 4, !tbaa !16
  %1197 = add nsw i32 %1196, -1
  store i32 %1197, i32* %1190, align 4, !tbaa !16
  br label %_ZN9__gnu_cxxL27__exchange_and_add_dispatchEPii.exit.i.i.i137

_ZN9__gnu_cxxL27__exchange_and_add_dispatchEPii.exit.i.i.i137: ; preds = %1195, %1191
  %.0.i.i.i.i136 = phi i32 [ %1194, %1191 ], [ %1196, %1195 ]
  %1198 = icmp slt i32 %.0.i.i.i.i136, 1
  br i1 %1198, label %1199, label %_ZNSsD1Ev.exit138

; <label>:1199                                    ; preds = %_ZN9__gnu_cxxL27__exchange_and_add_dispatchEPii.exit.i.i.i137
  call void @_ZNSs4_Rep10_M_destroyERKSaIcE(%"struct.std::basic_string<char, std::char_traits<char>, std::allocator<char> >::_Rep"* %1186, %"class.std::allocator.0"* %98) #1
  br label %_ZNSsD1Ev.exit138

_ZNSsD1Ev.exit138:                                ; preds = %1199, %_ZN9__gnu_cxxL27__exchange_and_add_dispatchEPii.exit.i.i.i137, %_ZNSsD1Ev.exit135
  call void @llvm.lifetime.end(i64 1, i8* %1182) #1
  call void @_ZNSsC1EPKcRKSaIcE(%"class.std::basic_string"* %228, i8* getelementptr inbounds ([4 x i8]* @.str12, i64 0, i64 0), %"class.std::allocator.0"* %229) #1
  call void @_ZNSsC1EPKcRKSaIcE(%"class.std::basic_string"* %230, i8* getelementptr inbounds ([3 x i8]* @.str13, i64 0, i64 0), %"class.std::allocator.0"* %231) #1
  %1200 = getelementptr inbounds %class.TestCase* %227, i64 0, i32 0
  call void @_ZNSsC1ERKSs(%"class.std::basic_string"* %1200, %"class.std::basic_string"* %228) #1
  %1201 = getelementptr inbounds %class.TestCase* %227, i64 0, i32 1
  call void @_ZNSsC1ERKSs(%"class.std::basic_string"* %1201, %"class.std::basic_string"* %230) #1
  %1202 = getelementptr inbounds %class.TestCase* %227, i64 0, i32 2
  store i32 0, i32* %1202, align 8, !tbaa !1
  %1203 = getelementptr inbounds %class.TestCase* %227, i64 0, i32 3
  store i32 0, i32* %1203, align 4, !tbaa !9
  %1204 = load %class.TestCase** %292, align 8, !tbaa !10
  %1205 = load %class.TestCase** %294, align 8, !tbaa !13
  %1206 = icmp eq %class.TestCase* %1204, %1205
  br i1 %1206, label %1218, label %1207

; <label>:1207                                    ; preds = %_ZNSsD1Ev.exit138
  %1208 = icmp eq %class.TestCase* %1204, null
  br i1 %1208, label %_ZN9__gnu_cxx14__alloc_traitsISaI8TestCaseEE9constructIS1_EEvRS2_PS1_RKT_.exit.i140, label %1209

; <label>:1209                                    ; preds = %1207
  %1210 = getelementptr inbounds %class.TestCase* %1204, i64 0, i32 0
  call void @_ZNSsC1ERKSs(%"class.std::basic_string"* %1210, %"class.std::basic_string"* %1200) #1
  %1211 = getelementptr inbounds %class.TestCase* %1204, i64 0, i32 1
  call void @_ZNSsC1ERKSs(%"class.std::basic_string"* %1211, %"class.std::basic_string"* %1201) #1
  %1212 = getelementptr inbounds %class.TestCase* %1204, i64 0, i32 2
  %1213 = bitcast i32* %1202 to i64*
  %1214 = bitcast i32* %1212 to i64*
  %1215 = load i64* %1213, align 8
  store i64 %1215, i64* %1214, align 4
  %.pre.i139 = load %class.TestCase** %292, align 8, !tbaa !10
  br label %_ZN9__gnu_cxx14__alloc_traitsISaI8TestCaseEE9constructIS1_EEvRS2_PS1_RKT_.exit.i140

_ZN9__gnu_cxx14__alloc_traitsISaI8TestCaseEE9constructIS1_EEvRS2_PS1_RKT_.exit.i140: ; preds = %1209, %1207
  %1216 = phi %class.TestCase* [ null, %1207 ], [ %.pre.i139, %1209 ]
  %1217 = getelementptr inbounds %class.TestCase* %1216, i64 1
  store %class.TestCase* %1217, %class.TestCase** %292, align 8, !tbaa !10
  br label %_ZNSt6vectorI8TestCaseSaIS0_EE9push_backERKS0_.exit141

; <label>:1218                                    ; preds = %_ZNSsD1Ev.exit138
  call void @_ZNSt6vectorI8TestCaseSaIS0_EE13_M_insert_auxEN9__gnu_cxx17__normal_iteratorIPS0_S2_EERKS0_(%"class.std::vector"* %testCases, %class.TestCase* %1204, %class.TestCase* %227) #1
  br label %_ZNSt6vectorI8TestCaseSaIS0_EE9push_backERKS0_.exit141

_ZNSt6vectorI8TestCaseSaIS0_EE9push_backERKS0_.exit141: ; preds = %1218, %_ZN9__gnu_cxx14__alloc_traitsISaI8TestCaseEE9constructIS1_EEvRS2_PS1_RKT_.exit.i140
  %1219 = getelementptr inbounds %"class.std::allocator.0"* %96, i64 0, i32 0
  call void @llvm.lifetime.start(i64 1, i8* %1219) #1
  %1220 = getelementptr inbounds %class.TestCase* %227, i64 0, i32 1, i32 0, i32 0
  %1221 = load i8** %1220, align 8, !tbaa !14
  %1222 = getelementptr inbounds i8* %1221, i64 -24
  %1223 = bitcast i8* %1222 to %"struct.std::basic_string<char, std::char_traits<char>, std::allocator<char> >::_Rep"*
  %1224 = icmp eq i8* %1222, bitcast ([0 x i64]* @_ZNSs4_Rep20_S_empty_rep_storageE to i8*)
  br i1 %1224, label %_ZNSsD1Ev.exit.i144, label %1225, !prof !15

; <label>:1225                                    ; preds = %_ZNSt6vectorI8TestCaseSaIS0_EE9push_backERKS0_.exit141
  %1226 = getelementptr inbounds i8* %1221, i64 -8
  %1227 = bitcast i8* %1226 to i32*
  br i1 icmp ne (i8* bitcast (i32 (i32*, void (i8*)*)* @__pthread_key_create to i8*), i8* null), label %1228, label %1232

; <label>:1228                                    ; preds = %1225
  %1229 = bitcast i32* %95 to i8*
  call void @llvm.lifetime.start(i64 4, i8* %1229)
  %1230 = atomicrmw volatile add i32* %1227, i32 -1 acq_rel
  store i32 %1230, i32* %95, align 4
  %1231 = load volatile i32* %95, align 4
  call void @llvm.lifetime.end(i64 4, i8* %1229)
  br label %_ZN9__gnu_cxxL27__exchange_and_add_dispatchEPii.exit.i.i.i.i143

; <label>:1232                                    ; preds = %1225
  %1233 = load i32* %1227, align 4, !tbaa !16
  %1234 = add nsw i32 %1233, -1
  store i32 %1234, i32* %1227, align 4, !tbaa !16
  br label %_ZN9__gnu_cxxL27__exchange_and_add_dispatchEPii.exit.i.i.i.i143

_ZN9__gnu_cxxL27__exchange_and_add_dispatchEPii.exit.i.i.i.i143: ; preds = %1232, %1228
  %.0.i.i.i.i.i142 = phi i32 [ %1231, %1228 ], [ %1233, %1232 ]
  %1235 = icmp slt i32 %.0.i.i.i.i.i142, 1
  br i1 %1235, label %1236, label %_ZNSsD1Ev.exit.i144

; <label>:1236                                    ; preds = %_ZN9__gnu_cxxL27__exchange_and_add_dispatchEPii.exit.i.i.i.i143
  call void @_ZNSs4_Rep10_M_destroyERKSaIcE(%"struct.std::basic_string<char, std::char_traits<char>, std::allocator<char> >::_Rep"* %1223, %"class.std::allocator.0"* %96) #1
  br label %_ZNSsD1Ev.exit.i144

_ZNSsD1Ev.exit.i144:                              ; preds = %1236, %_ZN9__gnu_cxxL27__exchange_and_add_dispatchEPii.exit.i.i.i.i143, %_ZNSt6vectorI8TestCaseSaIS0_EE9push_backERKS0_.exit141
  call void @llvm.lifetime.end(i64 1, i8* %1219) #1
  %1237 = getelementptr inbounds %"class.std::allocator.0"* %94, i64 0, i32 0
  call void @llvm.lifetime.start(i64 1, i8* %1237) #1
  %1238 = getelementptr inbounds %class.TestCase* %227, i64 0, i32 0, i32 0, i32 0
  %1239 = load i8** %1238, align 8, !tbaa !14
  %1240 = getelementptr inbounds i8* %1239, i64 -24
  %1241 = bitcast i8* %1240 to %"struct.std::basic_string<char, std::char_traits<char>, std::allocator<char> >::_Rep"*
  %1242 = icmp eq i8* %1240, bitcast ([0 x i64]* @_ZNSs4_Rep20_S_empty_rep_storageE to i8*)
  br i1 %1242, label %_ZN8TestCaseD2Ev.exit147, label %1243, !prof !15

; <label>:1243                                    ; preds = %_ZNSsD1Ev.exit.i144
  %1244 = getelementptr inbounds i8* %1239, i64 -8
  %1245 = bitcast i8* %1244 to i32*
  br i1 icmp ne (i8* bitcast (i32 (i32*, void (i8*)*)* @__pthread_key_create to i8*), i8* null), label %1246, label %1250

; <label>:1246                                    ; preds = %1243
  %1247 = bitcast i32* %93 to i8*
  call void @llvm.lifetime.start(i64 4, i8* %1247)
  %1248 = atomicrmw volatile add i32* %1245, i32 -1 acq_rel
  store i32 %1248, i32* %93, align 4
  %1249 = load volatile i32* %93, align 4
  call void @llvm.lifetime.end(i64 4, i8* %1247)
  br label %_ZN9__gnu_cxxL27__exchange_and_add_dispatchEPii.exit.i.i.i2.i146

; <label>:1250                                    ; preds = %1243
  %1251 = load i32* %1245, align 4, !tbaa !16
  %1252 = add nsw i32 %1251, -1
  store i32 %1252, i32* %1245, align 4, !tbaa !16
  br label %_ZN9__gnu_cxxL27__exchange_and_add_dispatchEPii.exit.i.i.i2.i146

_ZN9__gnu_cxxL27__exchange_and_add_dispatchEPii.exit.i.i.i2.i146: ; preds = %1250, %1246
  %.0.i.i.i.i1.i145 = phi i32 [ %1249, %1246 ], [ %1251, %1250 ]
  %1253 = icmp slt i32 %.0.i.i.i.i1.i145, 1
  br i1 %1253, label %1254, label %_ZN8TestCaseD2Ev.exit147

; <label>:1254                                    ; preds = %_ZN9__gnu_cxxL27__exchange_and_add_dispatchEPii.exit.i.i.i2.i146
  call void @_ZNSs4_Rep10_M_destroyERKSaIcE(%"struct.std::basic_string<char, std::char_traits<char>, std::allocator<char> >::_Rep"* %1241, %"class.std::allocator.0"* %94) #1
  br label %_ZN8TestCaseD2Ev.exit147

_ZN8TestCaseD2Ev.exit147:                         ; preds = %1254, %_ZN9__gnu_cxxL27__exchange_and_add_dispatchEPii.exit.i.i.i2.i146, %_ZNSsD1Ev.exit.i144
  call void @llvm.lifetime.end(i64 1, i8* %1237) #1
  %1255 = getelementptr inbounds %"class.std::allocator.0"* %92, i64 0, i32 0
  call void @llvm.lifetime.start(i64 1, i8* %1255) #1
  %1256 = getelementptr inbounds %"class.std::basic_string"* %230, i64 0, i32 0, i32 0
  %1257 = load i8** %1256, align 8, !tbaa !14
  %1258 = getelementptr inbounds i8* %1257, i64 -24
  %1259 = bitcast i8* %1258 to %"struct.std::basic_string<char, std::char_traits<char>, std::allocator<char> >::_Rep"*
  %1260 = icmp eq i8* %1258, bitcast ([0 x i64]* @_ZNSs4_Rep20_S_empty_rep_storageE to i8*)
  br i1 %1260, label %_ZNSsD1Ev.exit150, label %1261, !prof !15

; <label>:1261                                    ; preds = %_ZN8TestCaseD2Ev.exit147
  %1262 = getelementptr inbounds i8* %1257, i64 -8
  %1263 = bitcast i8* %1262 to i32*
  br i1 icmp ne (i8* bitcast (i32 (i32*, void (i8*)*)* @__pthread_key_create to i8*), i8* null), label %1264, label %1268

; <label>:1264                                    ; preds = %1261
  %1265 = bitcast i32* %91 to i8*
  call void @llvm.lifetime.start(i64 4, i8* %1265)
  %1266 = atomicrmw volatile add i32* %1263, i32 -1 acq_rel
  store i32 %1266, i32* %91, align 4
  %1267 = load volatile i32* %91, align 4
  call void @llvm.lifetime.end(i64 4, i8* %1265)
  br label %_ZN9__gnu_cxxL27__exchange_and_add_dispatchEPii.exit.i.i.i149

; <label>:1268                                    ; preds = %1261
  %1269 = load i32* %1263, align 4, !tbaa !16
  %1270 = add nsw i32 %1269, -1
  store i32 %1270, i32* %1263, align 4, !tbaa !16
  br label %_ZN9__gnu_cxxL27__exchange_and_add_dispatchEPii.exit.i.i.i149

_ZN9__gnu_cxxL27__exchange_and_add_dispatchEPii.exit.i.i.i149: ; preds = %1268, %1264
  %.0.i.i.i.i148 = phi i32 [ %1267, %1264 ], [ %1269, %1268 ]
  %1271 = icmp slt i32 %.0.i.i.i.i148, 1
  br i1 %1271, label %1272, label %_ZNSsD1Ev.exit150

; <label>:1272                                    ; preds = %_ZN9__gnu_cxxL27__exchange_and_add_dispatchEPii.exit.i.i.i149
  call void @_ZNSs4_Rep10_M_destroyERKSaIcE(%"struct.std::basic_string<char, std::char_traits<char>, std::allocator<char> >::_Rep"* %1259, %"class.std::allocator.0"* %92) #1
  br label %_ZNSsD1Ev.exit150

_ZNSsD1Ev.exit150:                                ; preds = %1272, %_ZN9__gnu_cxxL27__exchange_and_add_dispatchEPii.exit.i.i.i149, %_ZN8TestCaseD2Ev.exit147
  call void @llvm.lifetime.end(i64 1, i8* %1255) #1
  %1273 = getelementptr inbounds %"class.std::allocator.0"* %90, i64 0, i32 0
  call void @llvm.lifetime.start(i64 1, i8* %1273) #1
  %1274 = getelementptr inbounds %"class.std::basic_string"* %228, i64 0, i32 0, i32 0
  %1275 = load i8** %1274, align 8, !tbaa !14
  %1276 = getelementptr inbounds i8* %1275, i64 -24
  %1277 = bitcast i8* %1276 to %"struct.std::basic_string<char, std::char_traits<char>, std::allocator<char> >::_Rep"*
  %1278 = icmp eq i8* %1276, bitcast ([0 x i64]* @_ZNSs4_Rep20_S_empty_rep_storageE to i8*)
  br i1 %1278, label %_ZNSsD1Ev.exit153, label %1279, !prof !15

; <label>:1279                                    ; preds = %_ZNSsD1Ev.exit150
  %1280 = getelementptr inbounds i8* %1275, i64 -8
  %1281 = bitcast i8* %1280 to i32*
  br i1 icmp ne (i8* bitcast (i32 (i32*, void (i8*)*)* @__pthread_key_create to i8*), i8* null), label %1282, label %1286

; <label>:1282                                    ; preds = %1279
  %1283 = bitcast i32* %89 to i8*
  call void @llvm.lifetime.start(i64 4, i8* %1283)
  %1284 = atomicrmw volatile add i32* %1281, i32 -1 acq_rel
  store i32 %1284, i32* %89, align 4
  %1285 = load volatile i32* %89, align 4
  call void @llvm.lifetime.end(i64 4, i8* %1283)
  br label %_ZN9__gnu_cxxL27__exchange_and_add_dispatchEPii.exit.i.i.i152

; <label>:1286                                    ; preds = %1279
  %1287 = load i32* %1281, align 4, !tbaa !16
  %1288 = add nsw i32 %1287, -1
  store i32 %1288, i32* %1281, align 4, !tbaa !16
  br label %_ZN9__gnu_cxxL27__exchange_and_add_dispatchEPii.exit.i.i.i152

_ZN9__gnu_cxxL27__exchange_and_add_dispatchEPii.exit.i.i.i152: ; preds = %1286, %1282
  %.0.i.i.i.i151 = phi i32 [ %1285, %1282 ], [ %1287, %1286 ]
  %1289 = icmp slt i32 %.0.i.i.i.i151, 1
  br i1 %1289, label %1290, label %_ZNSsD1Ev.exit153

; <label>:1290                                    ; preds = %_ZN9__gnu_cxxL27__exchange_and_add_dispatchEPii.exit.i.i.i152
  call void @_ZNSs4_Rep10_M_destroyERKSaIcE(%"struct.std::basic_string<char, std::char_traits<char>, std::allocator<char> >::_Rep"* %1277, %"class.std::allocator.0"* %90) #1
  br label %_ZNSsD1Ev.exit153

_ZNSsD1Ev.exit153:                                ; preds = %1290, %_ZN9__gnu_cxxL27__exchange_and_add_dispatchEPii.exit.i.i.i152, %_ZNSsD1Ev.exit150
  call void @llvm.lifetime.end(i64 1, i8* %1273) #1
  call void @_ZNSsC1EPKcRKSaIcE(%"class.std::basic_string"* %233, i8* getelementptr inbounds ([4 x i8]* @.str12, i64 0, i64 0), %"class.std::allocator.0"* %234) #1
  call void @_ZNSsC1EPKcRKSaIcE(%"class.std::basic_string"* %235, i8* getelementptr inbounds ([3 x i8]* @.str13, i64 0, i64 0), %"class.std::allocator.0"* %236) #1
  %1291 = getelementptr inbounds %class.TestCase* %232, i64 0, i32 0
  call void @_ZNSsC1ERKSs(%"class.std::basic_string"* %1291, %"class.std::basic_string"* %233) #1
  %1292 = getelementptr inbounds %class.TestCase* %232, i64 0, i32 1
  call void @_ZNSsC1ERKSs(%"class.std::basic_string"* %1292, %"class.std::basic_string"* %235) #1
  %1293 = getelementptr inbounds %class.TestCase* %232, i64 0, i32 2
  store i32 2, i32* %1293, align 8, !tbaa !1
  %1294 = getelementptr inbounds %class.TestCase* %232, i64 0, i32 3
  store i32 1, i32* %1294, align 4, !tbaa !9
  %1295 = load %class.TestCase** %292, align 8, !tbaa !10
  %1296 = load %class.TestCase** %294, align 8, !tbaa !13
  %1297 = icmp eq %class.TestCase* %1295, %1296
  br i1 %1297, label %1309, label %1298

; <label>:1298                                    ; preds = %_ZNSsD1Ev.exit153
  %1299 = icmp eq %class.TestCase* %1295, null
  br i1 %1299, label %_ZN9__gnu_cxx14__alloc_traitsISaI8TestCaseEE9constructIS1_EEvRS2_PS1_RKT_.exit.i155, label %1300

; <label>:1300                                    ; preds = %1298
  %1301 = getelementptr inbounds %class.TestCase* %1295, i64 0, i32 0
  call void @_ZNSsC1ERKSs(%"class.std::basic_string"* %1301, %"class.std::basic_string"* %1291) #1
  %1302 = getelementptr inbounds %class.TestCase* %1295, i64 0, i32 1
  call void @_ZNSsC1ERKSs(%"class.std::basic_string"* %1302, %"class.std::basic_string"* %1292) #1
  %1303 = getelementptr inbounds %class.TestCase* %1295, i64 0, i32 2
  %1304 = bitcast i32* %1293 to i64*
  %1305 = bitcast i32* %1303 to i64*
  %1306 = load i64* %1304, align 8
  store i64 %1306, i64* %1305, align 4
  %.pre.i154 = load %class.TestCase** %292, align 8, !tbaa !10
  br label %_ZN9__gnu_cxx14__alloc_traitsISaI8TestCaseEE9constructIS1_EEvRS2_PS1_RKT_.exit.i155

_ZN9__gnu_cxx14__alloc_traitsISaI8TestCaseEE9constructIS1_EEvRS2_PS1_RKT_.exit.i155: ; preds = %1300, %1298
  %1307 = phi %class.TestCase* [ null, %1298 ], [ %.pre.i154, %1300 ]
  %1308 = getelementptr inbounds %class.TestCase* %1307, i64 1
  store %class.TestCase* %1308, %class.TestCase** %292, align 8, !tbaa !10
  br label %_ZNSt6vectorI8TestCaseSaIS0_EE9push_backERKS0_.exit156

; <label>:1309                                    ; preds = %_ZNSsD1Ev.exit153
  call void @_ZNSt6vectorI8TestCaseSaIS0_EE13_M_insert_auxEN9__gnu_cxx17__normal_iteratorIPS0_S2_EERKS0_(%"class.std::vector"* %testCases, %class.TestCase* %1295, %class.TestCase* %232) #1
  br label %_ZNSt6vectorI8TestCaseSaIS0_EE9push_backERKS0_.exit156

_ZNSt6vectorI8TestCaseSaIS0_EE9push_backERKS0_.exit156: ; preds = %1309, %_ZN9__gnu_cxx14__alloc_traitsISaI8TestCaseEE9constructIS1_EEvRS2_PS1_RKT_.exit.i155
  %1310 = getelementptr inbounds %"class.std::allocator.0"* %88, i64 0, i32 0
  call void @llvm.lifetime.start(i64 1, i8* %1310) #1
  %1311 = getelementptr inbounds %class.TestCase* %232, i64 0, i32 1, i32 0, i32 0
  %1312 = load i8** %1311, align 8, !tbaa !14
  %1313 = getelementptr inbounds i8* %1312, i64 -24
  %1314 = bitcast i8* %1313 to %"struct.std::basic_string<char, std::char_traits<char>, std::allocator<char> >::_Rep"*
  %1315 = icmp eq i8* %1313, bitcast ([0 x i64]* @_ZNSs4_Rep20_S_empty_rep_storageE to i8*)
  br i1 %1315, label %_ZNSsD1Ev.exit.i159, label %1316, !prof !15

; <label>:1316                                    ; preds = %_ZNSt6vectorI8TestCaseSaIS0_EE9push_backERKS0_.exit156
  %1317 = getelementptr inbounds i8* %1312, i64 -8
  %1318 = bitcast i8* %1317 to i32*
  br i1 icmp ne (i8* bitcast (i32 (i32*, void (i8*)*)* @__pthread_key_create to i8*), i8* null), label %1319, label %1323

; <label>:1319                                    ; preds = %1316
  %1320 = bitcast i32* %87 to i8*
  call void @llvm.lifetime.start(i64 4, i8* %1320)
  %1321 = atomicrmw volatile add i32* %1318, i32 -1 acq_rel
  store i32 %1321, i32* %87, align 4
  %1322 = load volatile i32* %87, align 4
  call void @llvm.lifetime.end(i64 4, i8* %1320)
  br label %_ZN9__gnu_cxxL27__exchange_and_add_dispatchEPii.exit.i.i.i.i158

; <label>:1323                                    ; preds = %1316
  %1324 = load i32* %1318, align 4, !tbaa !16
  %1325 = add nsw i32 %1324, -1
  store i32 %1325, i32* %1318, align 4, !tbaa !16
  br label %_ZN9__gnu_cxxL27__exchange_and_add_dispatchEPii.exit.i.i.i.i158

_ZN9__gnu_cxxL27__exchange_and_add_dispatchEPii.exit.i.i.i.i158: ; preds = %1323, %1319
  %.0.i.i.i.i.i157 = phi i32 [ %1322, %1319 ], [ %1324, %1323 ]
  %1326 = icmp slt i32 %.0.i.i.i.i.i157, 1
  br i1 %1326, label %1327, label %_ZNSsD1Ev.exit.i159

; <label>:1327                                    ; preds = %_ZN9__gnu_cxxL27__exchange_and_add_dispatchEPii.exit.i.i.i.i158
  call void @_ZNSs4_Rep10_M_destroyERKSaIcE(%"struct.std::basic_string<char, std::char_traits<char>, std::allocator<char> >::_Rep"* %1314, %"class.std::allocator.0"* %88) #1
  br label %_ZNSsD1Ev.exit.i159

_ZNSsD1Ev.exit.i159:                              ; preds = %1327, %_ZN9__gnu_cxxL27__exchange_and_add_dispatchEPii.exit.i.i.i.i158, %_ZNSt6vectorI8TestCaseSaIS0_EE9push_backERKS0_.exit156
  call void @llvm.lifetime.end(i64 1, i8* %1310) #1
  %1328 = getelementptr inbounds %"class.std::allocator.0"* %86, i64 0, i32 0
  call void @llvm.lifetime.start(i64 1, i8* %1328) #1
  %1329 = getelementptr inbounds %class.TestCase* %232, i64 0, i32 0, i32 0, i32 0
  %1330 = load i8** %1329, align 8, !tbaa !14
  %1331 = getelementptr inbounds i8* %1330, i64 -24
  %1332 = bitcast i8* %1331 to %"struct.std::basic_string<char, std::char_traits<char>, std::allocator<char> >::_Rep"*
  %1333 = icmp eq i8* %1331, bitcast ([0 x i64]* @_ZNSs4_Rep20_S_empty_rep_storageE to i8*)
  br i1 %1333, label %_ZN8TestCaseD2Ev.exit162, label %1334, !prof !15

; <label>:1334                                    ; preds = %_ZNSsD1Ev.exit.i159
  %1335 = getelementptr inbounds i8* %1330, i64 -8
  %1336 = bitcast i8* %1335 to i32*
  br i1 icmp ne (i8* bitcast (i32 (i32*, void (i8*)*)* @__pthread_key_create to i8*), i8* null), label %1337, label %1341

; <label>:1337                                    ; preds = %1334
  %1338 = bitcast i32* %85 to i8*
  call void @llvm.lifetime.start(i64 4, i8* %1338)
  %1339 = atomicrmw volatile add i32* %1336, i32 -1 acq_rel
  store i32 %1339, i32* %85, align 4
  %1340 = load volatile i32* %85, align 4
  call void @llvm.lifetime.end(i64 4, i8* %1338)
  br label %_ZN9__gnu_cxxL27__exchange_and_add_dispatchEPii.exit.i.i.i2.i161

; <label>:1341                                    ; preds = %1334
  %1342 = load i32* %1336, align 4, !tbaa !16
  %1343 = add nsw i32 %1342, -1
  store i32 %1343, i32* %1336, align 4, !tbaa !16
  br label %_ZN9__gnu_cxxL27__exchange_and_add_dispatchEPii.exit.i.i.i2.i161

_ZN9__gnu_cxxL27__exchange_and_add_dispatchEPii.exit.i.i.i2.i161: ; preds = %1341, %1337
  %.0.i.i.i.i1.i160 = phi i32 [ %1340, %1337 ], [ %1342, %1341 ]
  %1344 = icmp slt i32 %.0.i.i.i.i1.i160, 1
  br i1 %1344, label %1345, label %_ZN8TestCaseD2Ev.exit162

; <label>:1345                                    ; preds = %_ZN9__gnu_cxxL27__exchange_and_add_dispatchEPii.exit.i.i.i2.i161
  call void @_ZNSs4_Rep10_M_destroyERKSaIcE(%"struct.std::basic_string<char, std::char_traits<char>, std::allocator<char> >::_Rep"* %1332, %"class.std::allocator.0"* %86) #1
  br label %_ZN8TestCaseD2Ev.exit162

_ZN8TestCaseD2Ev.exit162:                         ; preds = %1345, %_ZN9__gnu_cxxL27__exchange_and_add_dispatchEPii.exit.i.i.i2.i161, %_ZNSsD1Ev.exit.i159
  call void @llvm.lifetime.end(i64 1, i8* %1328) #1
  %1346 = getelementptr inbounds %"class.std::allocator.0"* %84, i64 0, i32 0
  call void @llvm.lifetime.start(i64 1, i8* %1346) #1
  %1347 = getelementptr inbounds %"class.std::basic_string"* %235, i64 0, i32 0, i32 0
  %1348 = load i8** %1347, align 8, !tbaa !14
  %1349 = getelementptr inbounds i8* %1348, i64 -24
  %1350 = bitcast i8* %1349 to %"struct.std::basic_string<char, std::char_traits<char>, std::allocator<char> >::_Rep"*
  %1351 = icmp eq i8* %1349, bitcast ([0 x i64]* @_ZNSs4_Rep20_S_empty_rep_storageE to i8*)
  br i1 %1351, label %_ZNSsD1Ev.exit165, label %1352, !prof !15

; <label>:1352                                    ; preds = %_ZN8TestCaseD2Ev.exit162
  %1353 = getelementptr inbounds i8* %1348, i64 -8
  %1354 = bitcast i8* %1353 to i32*
  br i1 icmp ne (i8* bitcast (i32 (i32*, void (i8*)*)* @__pthread_key_create to i8*), i8* null), label %1355, label %1359

; <label>:1355                                    ; preds = %1352
  %1356 = bitcast i32* %83 to i8*
  call void @llvm.lifetime.start(i64 4, i8* %1356)
  %1357 = atomicrmw volatile add i32* %1354, i32 -1 acq_rel
  store i32 %1357, i32* %83, align 4
  %1358 = load volatile i32* %83, align 4
  call void @llvm.lifetime.end(i64 4, i8* %1356)
  br label %_ZN9__gnu_cxxL27__exchange_and_add_dispatchEPii.exit.i.i.i164

; <label>:1359                                    ; preds = %1352
  %1360 = load i32* %1354, align 4, !tbaa !16
  %1361 = add nsw i32 %1360, -1
  store i32 %1361, i32* %1354, align 4, !tbaa !16
  br label %_ZN9__gnu_cxxL27__exchange_and_add_dispatchEPii.exit.i.i.i164

_ZN9__gnu_cxxL27__exchange_and_add_dispatchEPii.exit.i.i.i164: ; preds = %1359, %1355
  %.0.i.i.i.i163 = phi i32 [ %1358, %1355 ], [ %1360, %1359 ]
  %1362 = icmp slt i32 %.0.i.i.i.i163, 1
  br i1 %1362, label %1363, label %_ZNSsD1Ev.exit165

; <label>:1363                                    ; preds = %_ZN9__gnu_cxxL27__exchange_and_add_dispatchEPii.exit.i.i.i164
  call void @_ZNSs4_Rep10_M_destroyERKSaIcE(%"struct.std::basic_string<char, std::char_traits<char>, std::allocator<char> >::_Rep"* %1350, %"class.std::allocator.0"* %84) #1
  br label %_ZNSsD1Ev.exit165

_ZNSsD1Ev.exit165:                                ; preds = %1363, %_ZN9__gnu_cxxL27__exchange_and_add_dispatchEPii.exit.i.i.i164, %_ZN8TestCaseD2Ev.exit162
  call void @llvm.lifetime.end(i64 1, i8* %1346) #1
  %1364 = getelementptr inbounds %"class.std::allocator.0"* %82, i64 0, i32 0
  call void @llvm.lifetime.start(i64 1, i8* %1364) #1
  %1365 = getelementptr inbounds %"class.std::basic_string"* %233, i64 0, i32 0, i32 0
  %1366 = load i8** %1365, align 8, !tbaa !14
  %1367 = getelementptr inbounds i8* %1366, i64 -24
  %1368 = bitcast i8* %1367 to %"struct.std::basic_string<char, std::char_traits<char>, std::allocator<char> >::_Rep"*
  %1369 = icmp eq i8* %1367, bitcast ([0 x i64]* @_ZNSs4_Rep20_S_empty_rep_storageE to i8*)
  br i1 %1369, label %_ZNSsD1Ev.exit168, label %1370, !prof !15

; <label>:1370                                    ; preds = %_ZNSsD1Ev.exit165
  %1371 = getelementptr inbounds i8* %1366, i64 -8
  %1372 = bitcast i8* %1371 to i32*
  br i1 icmp ne (i8* bitcast (i32 (i32*, void (i8*)*)* @__pthread_key_create to i8*), i8* null), label %1373, label %1377

; <label>:1373                                    ; preds = %1370
  %1374 = bitcast i32* %81 to i8*
  call void @llvm.lifetime.start(i64 4, i8* %1374)
  %1375 = atomicrmw volatile add i32* %1372, i32 -1 acq_rel
  store i32 %1375, i32* %81, align 4
  %1376 = load volatile i32* %81, align 4
  call void @llvm.lifetime.end(i64 4, i8* %1374)
  br label %_ZN9__gnu_cxxL27__exchange_and_add_dispatchEPii.exit.i.i.i167

; <label>:1377                                    ; preds = %1370
  %1378 = load i32* %1372, align 4, !tbaa !16
  %1379 = add nsw i32 %1378, -1
  store i32 %1379, i32* %1372, align 4, !tbaa !16
  br label %_ZN9__gnu_cxxL27__exchange_and_add_dispatchEPii.exit.i.i.i167

_ZN9__gnu_cxxL27__exchange_and_add_dispatchEPii.exit.i.i.i167: ; preds = %1377, %1373
  %.0.i.i.i.i166 = phi i32 [ %1376, %1373 ], [ %1378, %1377 ]
  %1380 = icmp slt i32 %.0.i.i.i.i166, 1
  br i1 %1380, label %1381, label %_ZNSsD1Ev.exit168

; <label>:1381                                    ; preds = %_ZN9__gnu_cxxL27__exchange_and_add_dispatchEPii.exit.i.i.i167
  call void @_ZNSs4_Rep10_M_destroyERKSaIcE(%"struct.std::basic_string<char, std::char_traits<char>, std::allocator<char> >::_Rep"* %1368, %"class.std::allocator.0"* %82) #1
  br label %_ZNSsD1Ev.exit168

_ZNSsD1Ev.exit168:                                ; preds = %1381, %_ZN9__gnu_cxxL27__exchange_and_add_dispatchEPii.exit.i.i.i167, %_ZNSsD1Ev.exit165
  call void @llvm.lifetime.end(i64 1, i8* %1364) #1
  call void @_ZNSsC1EPKcRKSaIcE(%"class.std::basic_string"* %238, i8* getelementptr inbounds ([4 x i8]* @.str12, i64 0, i64 0), %"class.std::allocator.0"* %239) #1
  call void @_ZNSsC1EPKcRKSaIcE(%"class.std::basic_string"* %240, i8* getelementptr inbounds ([4 x i8]* @.str12, i64 0, i64 0), %"class.std::allocator.0"* %241) #1
  %1382 = getelementptr inbounds %class.TestCase* %237, i64 0, i32 0
  call void @_ZNSsC1ERKSs(%"class.std::basic_string"* %1382, %"class.std::basic_string"* %238) #1
  %1383 = getelementptr inbounds %class.TestCase* %237, i64 0, i32 1
  call void @_ZNSsC1ERKSs(%"class.std::basic_string"* %1383, %"class.std::basic_string"* %240) #1
  %1384 = getelementptr inbounds %class.TestCase* %237, i64 0, i32 2
  store i32 2, i32* %1384, align 8, !tbaa !1
  %1385 = getelementptr inbounds %class.TestCase* %237, i64 0, i32 3
  store i32 0, i32* %1385, align 4, !tbaa !9
  %1386 = load %class.TestCase** %292, align 8, !tbaa !10
  %1387 = load %class.TestCase** %294, align 8, !tbaa !13
  %1388 = icmp eq %class.TestCase* %1386, %1387
  br i1 %1388, label %1400, label %1389

; <label>:1389                                    ; preds = %_ZNSsD1Ev.exit168
  %1390 = icmp eq %class.TestCase* %1386, null
  br i1 %1390, label %_ZN9__gnu_cxx14__alloc_traitsISaI8TestCaseEE9constructIS1_EEvRS2_PS1_RKT_.exit.i170, label %1391

; <label>:1391                                    ; preds = %1389
  %1392 = getelementptr inbounds %class.TestCase* %1386, i64 0, i32 0
  call void @_ZNSsC1ERKSs(%"class.std::basic_string"* %1392, %"class.std::basic_string"* %1382) #1
  %1393 = getelementptr inbounds %class.TestCase* %1386, i64 0, i32 1
  call void @_ZNSsC1ERKSs(%"class.std::basic_string"* %1393, %"class.std::basic_string"* %1383) #1
  %1394 = getelementptr inbounds %class.TestCase* %1386, i64 0, i32 2
  %1395 = bitcast i32* %1384 to i64*
  %1396 = bitcast i32* %1394 to i64*
  %1397 = load i64* %1395, align 8
  store i64 %1397, i64* %1396, align 4
  %.pre.i169 = load %class.TestCase** %292, align 8, !tbaa !10
  br label %_ZN9__gnu_cxx14__alloc_traitsISaI8TestCaseEE9constructIS1_EEvRS2_PS1_RKT_.exit.i170

_ZN9__gnu_cxx14__alloc_traitsISaI8TestCaseEE9constructIS1_EEvRS2_PS1_RKT_.exit.i170: ; preds = %1391, %1389
  %1398 = phi %class.TestCase* [ null, %1389 ], [ %.pre.i169, %1391 ]
  %1399 = getelementptr inbounds %class.TestCase* %1398, i64 1
  store %class.TestCase* %1399, %class.TestCase** %292, align 8, !tbaa !10
  br label %_ZNSt6vectorI8TestCaseSaIS0_EE9push_backERKS0_.exit171

; <label>:1400                                    ; preds = %_ZNSsD1Ev.exit168
  call void @_ZNSt6vectorI8TestCaseSaIS0_EE13_M_insert_auxEN9__gnu_cxx17__normal_iteratorIPS0_S2_EERKS0_(%"class.std::vector"* %testCases, %class.TestCase* %1386, %class.TestCase* %237) #1
  br label %_ZNSt6vectorI8TestCaseSaIS0_EE9push_backERKS0_.exit171

_ZNSt6vectorI8TestCaseSaIS0_EE9push_backERKS0_.exit171: ; preds = %1400, %_ZN9__gnu_cxx14__alloc_traitsISaI8TestCaseEE9constructIS1_EEvRS2_PS1_RKT_.exit.i170
  %1401 = getelementptr inbounds %"class.std::allocator.0"* %80, i64 0, i32 0
  call void @llvm.lifetime.start(i64 1, i8* %1401) #1
  %1402 = getelementptr inbounds %class.TestCase* %237, i64 0, i32 1, i32 0, i32 0
  %1403 = load i8** %1402, align 8, !tbaa !14
  %1404 = getelementptr inbounds i8* %1403, i64 -24
  %1405 = bitcast i8* %1404 to %"struct.std::basic_string<char, std::char_traits<char>, std::allocator<char> >::_Rep"*
  %1406 = icmp eq i8* %1404, bitcast ([0 x i64]* @_ZNSs4_Rep20_S_empty_rep_storageE to i8*)
  br i1 %1406, label %_ZNSsD1Ev.exit.i174, label %1407, !prof !15

; <label>:1407                                    ; preds = %_ZNSt6vectorI8TestCaseSaIS0_EE9push_backERKS0_.exit171
  %1408 = getelementptr inbounds i8* %1403, i64 -8
  %1409 = bitcast i8* %1408 to i32*
  br i1 icmp ne (i8* bitcast (i32 (i32*, void (i8*)*)* @__pthread_key_create to i8*), i8* null), label %1410, label %1414

; <label>:1410                                    ; preds = %1407
  %1411 = bitcast i32* %79 to i8*
  call void @llvm.lifetime.start(i64 4, i8* %1411)
  %1412 = atomicrmw volatile add i32* %1409, i32 -1 acq_rel
  store i32 %1412, i32* %79, align 4
  %1413 = load volatile i32* %79, align 4
  call void @llvm.lifetime.end(i64 4, i8* %1411)
  br label %_ZN9__gnu_cxxL27__exchange_and_add_dispatchEPii.exit.i.i.i.i173

; <label>:1414                                    ; preds = %1407
  %1415 = load i32* %1409, align 4, !tbaa !16
  %1416 = add nsw i32 %1415, -1
  store i32 %1416, i32* %1409, align 4, !tbaa !16
  br label %_ZN9__gnu_cxxL27__exchange_and_add_dispatchEPii.exit.i.i.i.i173

_ZN9__gnu_cxxL27__exchange_and_add_dispatchEPii.exit.i.i.i.i173: ; preds = %1414, %1410
  %.0.i.i.i.i.i172 = phi i32 [ %1413, %1410 ], [ %1415, %1414 ]
  %1417 = icmp slt i32 %.0.i.i.i.i.i172, 1
  br i1 %1417, label %1418, label %_ZNSsD1Ev.exit.i174

; <label>:1418                                    ; preds = %_ZN9__gnu_cxxL27__exchange_and_add_dispatchEPii.exit.i.i.i.i173
  call void @_ZNSs4_Rep10_M_destroyERKSaIcE(%"struct.std::basic_string<char, std::char_traits<char>, std::allocator<char> >::_Rep"* %1405, %"class.std::allocator.0"* %80) #1
  br label %_ZNSsD1Ev.exit.i174

_ZNSsD1Ev.exit.i174:                              ; preds = %1418, %_ZN9__gnu_cxxL27__exchange_and_add_dispatchEPii.exit.i.i.i.i173, %_ZNSt6vectorI8TestCaseSaIS0_EE9push_backERKS0_.exit171
  call void @llvm.lifetime.end(i64 1, i8* %1401) #1
  %1419 = getelementptr inbounds %"class.std::allocator.0"* %78, i64 0, i32 0
  call void @llvm.lifetime.start(i64 1, i8* %1419) #1
  %1420 = getelementptr inbounds %class.TestCase* %237, i64 0, i32 0, i32 0, i32 0
  %1421 = load i8** %1420, align 8, !tbaa !14
  %1422 = getelementptr inbounds i8* %1421, i64 -24
  %1423 = bitcast i8* %1422 to %"struct.std::basic_string<char, std::char_traits<char>, std::allocator<char> >::_Rep"*
  %1424 = icmp eq i8* %1422, bitcast ([0 x i64]* @_ZNSs4_Rep20_S_empty_rep_storageE to i8*)
  br i1 %1424, label %_ZN8TestCaseD2Ev.exit177, label %1425, !prof !15

; <label>:1425                                    ; preds = %_ZNSsD1Ev.exit.i174
  %1426 = getelementptr inbounds i8* %1421, i64 -8
  %1427 = bitcast i8* %1426 to i32*
  br i1 icmp ne (i8* bitcast (i32 (i32*, void (i8*)*)* @__pthread_key_create to i8*), i8* null), label %1428, label %1432

; <label>:1428                                    ; preds = %1425
  %1429 = bitcast i32* %77 to i8*
  call void @llvm.lifetime.start(i64 4, i8* %1429)
  %1430 = atomicrmw volatile add i32* %1427, i32 -1 acq_rel
  store i32 %1430, i32* %77, align 4
  %1431 = load volatile i32* %77, align 4
  call void @llvm.lifetime.end(i64 4, i8* %1429)
  br label %_ZN9__gnu_cxxL27__exchange_and_add_dispatchEPii.exit.i.i.i2.i176

; <label>:1432                                    ; preds = %1425
  %1433 = load i32* %1427, align 4, !tbaa !16
  %1434 = add nsw i32 %1433, -1
  store i32 %1434, i32* %1427, align 4, !tbaa !16
  br label %_ZN9__gnu_cxxL27__exchange_and_add_dispatchEPii.exit.i.i.i2.i176

_ZN9__gnu_cxxL27__exchange_and_add_dispatchEPii.exit.i.i.i2.i176: ; preds = %1432, %1428
  %.0.i.i.i.i1.i175 = phi i32 [ %1431, %1428 ], [ %1433, %1432 ]
  %1435 = icmp slt i32 %.0.i.i.i.i1.i175, 1
  br i1 %1435, label %1436, label %_ZN8TestCaseD2Ev.exit177

; <label>:1436                                    ; preds = %_ZN9__gnu_cxxL27__exchange_and_add_dispatchEPii.exit.i.i.i2.i176
  call void @_ZNSs4_Rep10_M_destroyERKSaIcE(%"struct.std::basic_string<char, std::char_traits<char>, std::allocator<char> >::_Rep"* %1423, %"class.std::allocator.0"* %78) #1
  br label %_ZN8TestCaseD2Ev.exit177

_ZN8TestCaseD2Ev.exit177:                         ; preds = %1436, %_ZN9__gnu_cxxL27__exchange_and_add_dispatchEPii.exit.i.i.i2.i176, %_ZNSsD1Ev.exit.i174
  call void @llvm.lifetime.end(i64 1, i8* %1419) #1
  %1437 = getelementptr inbounds %"class.std::allocator.0"* %76, i64 0, i32 0
  call void @llvm.lifetime.start(i64 1, i8* %1437) #1
  %1438 = getelementptr inbounds %"class.std::basic_string"* %240, i64 0, i32 0, i32 0
  %1439 = load i8** %1438, align 8, !tbaa !14
  %1440 = getelementptr inbounds i8* %1439, i64 -24
  %1441 = bitcast i8* %1440 to %"struct.std::basic_string<char, std::char_traits<char>, std::allocator<char> >::_Rep"*
  %1442 = icmp eq i8* %1440, bitcast ([0 x i64]* @_ZNSs4_Rep20_S_empty_rep_storageE to i8*)
  br i1 %1442, label %_ZNSsD1Ev.exit180, label %1443, !prof !15

; <label>:1443                                    ; preds = %_ZN8TestCaseD2Ev.exit177
  %1444 = getelementptr inbounds i8* %1439, i64 -8
  %1445 = bitcast i8* %1444 to i32*
  br i1 icmp ne (i8* bitcast (i32 (i32*, void (i8*)*)* @__pthread_key_create to i8*), i8* null), label %1446, label %1450

; <label>:1446                                    ; preds = %1443
  %1447 = bitcast i32* %75 to i8*
  call void @llvm.lifetime.start(i64 4, i8* %1447)
  %1448 = atomicrmw volatile add i32* %1445, i32 -1 acq_rel
  store i32 %1448, i32* %75, align 4
  %1449 = load volatile i32* %75, align 4
  call void @llvm.lifetime.end(i64 4, i8* %1447)
  br label %_ZN9__gnu_cxxL27__exchange_and_add_dispatchEPii.exit.i.i.i179

; <label>:1450                                    ; preds = %1443
  %1451 = load i32* %1445, align 4, !tbaa !16
  %1452 = add nsw i32 %1451, -1
  store i32 %1452, i32* %1445, align 4, !tbaa !16
  br label %_ZN9__gnu_cxxL27__exchange_and_add_dispatchEPii.exit.i.i.i179

_ZN9__gnu_cxxL27__exchange_and_add_dispatchEPii.exit.i.i.i179: ; preds = %1450, %1446
  %.0.i.i.i.i178 = phi i32 [ %1449, %1446 ], [ %1451, %1450 ]
  %1453 = icmp slt i32 %.0.i.i.i.i178, 1
  br i1 %1453, label %1454, label %_ZNSsD1Ev.exit180

; <label>:1454                                    ; preds = %_ZN9__gnu_cxxL27__exchange_and_add_dispatchEPii.exit.i.i.i179
  call void @_ZNSs4_Rep10_M_destroyERKSaIcE(%"struct.std::basic_string<char, std::char_traits<char>, std::allocator<char> >::_Rep"* %1441, %"class.std::allocator.0"* %76) #1
  br label %_ZNSsD1Ev.exit180

_ZNSsD1Ev.exit180:                                ; preds = %1454, %_ZN9__gnu_cxxL27__exchange_and_add_dispatchEPii.exit.i.i.i179, %_ZN8TestCaseD2Ev.exit177
  call void @llvm.lifetime.end(i64 1, i8* %1437) #1
  %1455 = getelementptr inbounds %"class.std::allocator.0"* %74, i64 0, i32 0
  call void @llvm.lifetime.start(i64 1, i8* %1455) #1
  %1456 = getelementptr inbounds %"class.std::basic_string"* %238, i64 0, i32 0, i32 0
  %1457 = load i8** %1456, align 8, !tbaa !14
  %1458 = getelementptr inbounds i8* %1457, i64 -24
  %1459 = bitcast i8* %1458 to %"struct.std::basic_string<char, std::char_traits<char>, std::allocator<char> >::_Rep"*
  %1460 = icmp eq i8* %1458, bitcast ([0 x i64]* @_ZNSs4_Rep20_S_empty_rep_storageE to i8*)
  br i1 %1460, label %_ZNSsD1Ev.exit183, label %1461, !prof !15

; <label>:1461                                    ; preds = %_ZNSsD1Ev.exit180
  %1462 = getelementptr inbounds i8* %1457, i64 -8
  %1463 = bitcast i8* %1462 to i32*
  br i1 icmp ne (i8* bitcast (i32 (i32*, void (i8*)*)* @__pthread_key_create to i8*), i8* null), label %1464, label %1468

; <label>:1464                                    ; preds = %1461
  %1465 = bitcast i32* %73 to i8*
  call void @llvm.lifetime.start(i64 4, i8* %1465)
  %1466 = atomicrmw volatile add i32* %1463, i32 -1 acq_rel
  store i32 %1466, i32* %73, align 4
  %1467 = load volatile i32* %73, align 4
  call void @llvm.lifetime.end(i64 4, i8* %1465)
  br label %_ZN9__gnu_cxxL27__exchange_and_add_dispatchEPii.exit.i.i.i182

; <label>:1468                                    ; preds = %1461
  %1469 = load i32* %1463, align 4, !tbaa !16
  %1470 = add nsw i32 %1469, -1
  store i32 %1470, i32* %1463, align 4, !tbaa !16
  br label %_ZN9__gnu_cxxL27__exchange_and_add_dispatchEPii.exit.i.i.i182

_ZN9__gnu_cxxL27__exchange_and_add_dispatchEPii.exit.i.i.i182: ; preds = %1468, %1464
  %.0.i.i.i.i181 = phi i32 [ %1467, %1464 ], [ %1469, %1468 ]
  %1471 = icmp slt i32 %.0.i.i.i.i181, 1
  br i1 %1471, label %1472, label %_ZNSsD1Ev.exit183

; <label>:1472                                    ; preds = %_ZN9__gnu_cxxL27__exchange_and_add_dispatchEPii.exit.i.i.i182
  call void @_ZNSs4_Rep10_M_destroyERKSaIcE(%"struct.std::basic_string<char, std::char_traits<char>, std::allocator<char> >::_Rep"* %1459, %"class.std::allocator.0"* %74) #1
  br label %_ZNSsD1Ev.exit183

_ZNSsD1Ev.exit183:                                ; preds = %1472, %_ZN9__gnu_cxxL27__exchange_and_add_dispatchEPii.exit.i.i.i182, %_ZNSsD1Ev.exit180
  call void @llvm.lifetime.end(i64 1, i8* %1455) #1
  call void @_ZNSsC1EPKcRKSaIcE(%"class.std::basic_string"* %243, i8* getelementptr inbounds ([8 x i8]* @.str14, i64 0, i64 0), %"class.std::allocator.0"* %244) #1
  call void @_ZNSsC1EPKcRKSaIcE(%"class.std::basic_string"* %245, i8* getelementptr inbounds ([12 x i8]* @.str15, i64 0, i64 0), %"class.std::allocator.0"* %246) #1
  %1473 = getelementptr inbounds %class.TestCase* %242, i64 0, i32 0
  call void @_ZNSsC1ERKSs(%"class.std::basic_string"* %1473, %"class.std::basic_string"* %243) #1
  %1474 = getelementptr inbounds %class.TestCase* %242, i64 0, i32 1
  call void @_ZNSsC1ERKSs(%"class.std::basic_string"* %1474, %"class.std::basic_string"* %245) #1
  %1475 = getelementptr inbounds %class.TestCase* %242, i64 0, i32 2
  store i32 0, i32* %1475, align 8, !tbaa !1
  %1476 = getelementptr inbounds %class.TestCase* %242, i64 0, i32 3
  store i32 0, i32* %1476, align 4, !tbaa !9
  %1477 = load %class.TestCase** %292, align 8, !tbaa !10
  %1478 = load %class.TestCase** %294, align 8, !tbaa !13
  %1479 = icmp eq %class.TestCase* %1477, %1478
  br i1 %1479, label %1491, label %1480

; <label>:1480                                    ; preds = %_ZNSsD1Ev.exit183
  %1481 = icmp eq %class.TestCase* %1477, null
  br i1 %1481, label %_ZN9__gnu_cxx14__alloc_traitsISaI8TestCaseEE9constructIS1_EEvRS2_PS1_RKT_.exit.i185, label %1482

; <label>:1482                                    ; preds = %1480
  %1483 = getelementptr inbounds %class.TestCase* %1477, i64 0, i32 0
  call void @_ZNSsC1ERKSs(%"class.std::basic_string"* %1483, %"class.std::basic_string"* %1473) #1
  %1484 = getelementptr inbounds %class.TestCase* %1477, i64 0, i32 1
  call void @_ZNSsC1ERKSs(%"class.std::basic_string"* %1484, %"class.std::basic_string"* %1474) #1
  %1485 = getelementptr inbounds %class.TestCase* %1477, i64 0, i32 2
  %1486 = bitcast i32* %1475 to i64*
  %1487 = bitcast i32* %1485 to i64*
  %1488 = load i64* %1486, align 8
  store i64 %1488, i64* %1487, align 4
  %.pre.i184 = load %class.TestCase** %292, align 8, !tbaa !10
  br label %_ZN9__gnu_cxx14__alloc_traitsISaI8TestCaseEE9constructIS1_EEvRS2_PS1_RKT_.exit.i185

_ZN9__gnu_cxx14__alloc_traitsISaI8TestCaseEE9constructIS1_EEvRS2_PS1_RKT_.exit.i185: ; preds = %1482, %1480
  %1489 = phi %class.TestCase* [ null, %1480 ], [ %.pre.i184, %1482 ]
  %1490 = getelementptr inbounds %class.TestCase* %1489, i64 1
  store %class.TestCase* %1490, %class.TestCase** %292, align 8, !tbaa !10
  br label %_ZNSt6vectorI8TestCaseSaIS0_EE9push_backERKS0_.exit186

; <label>:1491                                    ; preds = %_ZNSsD1Ev.exit183
  call void @_ZNSt6vectorI8TestCaseSaIS0_EE13_M_insert_auxEN9__gnu_cxx17__normal_iteratorIPS0_S2_EERKS0_(%"class.std::vector"* %testCases, %class.TestCase* %1477, %class.TestCase* %242) #1
  br label %_ZNSt6vectorI8TestCaseSaIS0_EE9push_backERKS0_.exit186

_ZNSt6vectorI8TestCaseSaIS0_EE9push_backERKS0_.exit186: ; preds = %1491, %_ZN9__gnu_cxx14__alloc_traitsISaI8TestCaseEE9constructIS1_EEvRS2_PS1_RKT_.exit.i185
  %1492 = getelementptr inbounds %"class.std::allocator.0"* %72, i64 0, i32 0
  call void @llvm.lifetime.start(i64 1, i8* %1492) #1
  %1493 = getelementptr inbounds %class.TestCase* %242, i64 0, i32 1, i32 0, i32 0
  %1494 = load i8** %1493, align 8, !tbaa !14
  %1495 = getelementptr inbounds i8* %1494, i64 -24
  %1496 = bitcast i8* %1495 to %"struct.std::basic_string<char, std::char_traits<char>, std::allocator<char> >::_Rep"*
  %1497 = icmp eq i8* %1495, bitcast ([0 x i64]* @_ZNSs4_Rep20_S_empty_rep_storageE to i8*)
  br i1 %1497, label %_ZNSsD1Ev.exit.i189, label %1498, !prof !15

; <label>:1498                                    ; preds = %_ZNSt6vectorI8TestCaseSaIS0_EE9push_backERKS0_.exit186
  %1499 = getelementptr inbounds i8* %1494, i64 -8
  %1500 = bitcast i8* %1499 to i32*
  br i1 icmp ne (i8* bitcast (i32 (i32*, void (i8*)*)* @__pthread_key_create to i8*), i8* null), label %1501, label %1505

; <label>:1501                                    ; preds = %1498
  %1502 = bitcast i32* %71 to i8*
  call void @llvm.lifetime.start(i64 4, i8* %1502)
  %1503 = atomicrmw volatile add i32* %1500, i32 -1 acq_rel
  store i32 %1503, i32* %71, align 4
  %1504 = load volatile i32* %71, align 4
  call void @llvm.lifetime.end(i64 4, i8* %1502)
  br label %_ZN9__gnu_cxxL27__exchange_and_add_dispatchEPii.exit.i.i.i.i188

; <label>:1505                                    ; preds = %1498
  %1506 = load i32* %1500, align 4, !tbaa !16
  %1507 = add nsw i32 %1506, -1
  store i32 %1507, i32* %1500, align 4, !tbaa !16
  br label %_ZN9__gnu_cxxL27__exchange_and_add_dispatchEPii.exit.i.i.i.i188

_ZN9__gnu_cxxL27__exchange_and_add_dispatchEPii.exit.i.i.i.i188: ; preds = %1505, %1501
  %.0.i.i.i.i.i187 = phi i32 [ %1504, %1501 ], [ %1506, %1505 ]
  %1508 = icmp slt i32 %.0.i.i.i.i.i187, 1
  br i1 %1508, label %1509, label %_ZNSsD1Ev.exit.i189

; <label>:1509                                    ; preds = %_ZN9__gnu_cxxL27__exchange_and_add_dispatchEPii.exit.i.i.i.i188
  call void @_ZNSs4_Rep10_M_destroyERKSaIcE(%"struct.std::basic_string<char, std::char_traits<char>, std::allocator<char> >::_Rep"* %1496, %"class.std::allocator.0"* %72) #1
  br label %_ZNSsD1Ev.exit.i189

_ZNSsD1Ev.exit.i189:                              ; preds = %1509, %_ZN9__gnu_cxxL27__exchange_and_add_dispatchEPii.exit.i.i.i.i188, %_ZNSt6vectorI8TestCaseSaIS0_EE9push_backERKS0_.exit186
  call void @llvm.lifetime.end(i64 1, i8* %1492) #1
  %1510 = getelementptr inbounds %"class.std::allocator.0"* %70, i64 0, i32 0
  call void @llvm.lifetime.start(i64 1, i8* %1510) #1
  %1511 = getelementptr inbounds %class.TestCase* %242, i64 0, i32 0, i32 0, i32 0
  %1512 = load i8** %1511, align 8, !tbaa !14
  %1513 = getelementptr inbounds i8* %1512, i64 -24
  %1514 = bitcast i8* %1513 to %"struct.std::basic_string<char, std::char_traits<char>, std::allocator<char> >::_Rep"*
  %1515 = icmp eq i8* %1513, bitcast ([0 x i64]* @_ZNSs4_Rep20_S_empty_rep_storageE to i8*)
  br i1 %1515, label %_ZN8TestCaseD2Ev.exit192, label %1516, !prof !15

; <label>:1516                                    ; preds = %_ZNSsD1Ev.exit.i189
  %1517 = getelementptr inbounds i8* %1512, i64 -8
  %1518 = bitcast i8* %1517 to i32*
  br i1 icmp ne (i8* bitcast (i32 (i32*, void (i8*)*)* @__pthread_key_create to i8*), i8* null), label %1519, label %1523

; <label>:1519                                    ; preds = %1516
  %1520 = bitcast i32* %69 to i8*
  call void @llvm.lifetime.start(i64 4, i8* %1520)
  %1521 = atomicrmw volatile add i32* %1518, i32 -1 acq_rel
  store i32 %1521, i32* %69, align 4
  %1522 = load volatile i32* %69, align 4
  call void @llvm.lifetime.end(i64 4, i8* %1520)
  br label %_ZN9__gnu_cxxL27__exchange_and_add_dispatchEPii.exit.i.i.i2.i191

; <label>:1523                                    ; preds = %1516
  %1524 = load i32* %1518, align 4, !tbaa !16
  %1525 = add nsw i32 %1524, -1
  store i32 %1525, i32* %1518, align 4, !tbaa !16
  br label %_ZN9__gnu_cxxL27__exchange_and_add_dispatchEPii.exit.i.i.i2.i191

_ZN9__gnu_cxxL27__exchange_and_add_dispatchEPii.exit.i.i.i2.i191: ; preds = %1523, %1519
  %.0.i.i.i.i1.i190 = phi i32 [ %1522, %1519 ], [ %1524, %1523 ]
  %1526 = icmp slt i32 %.0.i.i.i.i1.i190, 1
  br i1 %1526, label %1527, label %_ZN8TestCaseD2Ev.exit192

; <label>:1527                                    ; preds = %_ZN9__gnu_cxxL27__exchange_and_add_dispatchEPii.exit.i.i.i2.i191
  call void @_ZNSs4_Rep10_M_destroyERKSaIcE(%"struct.std::basic_string<char, std::char_traits<char>, std::allocator<char> >::_Rep"* %1514, %"class.std::allocator.0"* %70) #1
  br label %_ZN8TestCaseD2Ev.exit192

_ZN8TestCaseD2Ev.exit192:                         ; preds = %1527, %_ZN9__gnu_cxxL27__exchange_and_add_dispatchEPii.exit.i.i.i2.i191, %_ZNSsD1Ev.exit.i189
  call void @llvm.lifetime.end(i64 1, i8* %1510) #1
  %1528 = getelementptr inbounds %"class.std::allocator.0"* %68, i64 0, i32 0
  call void @llvm.lifetime.start(i64 1, i8* %1528) #1
  %1529 = getelementptr inbounds %"class.std::basic_string"* %245, i64 0, i32 0, i32 0
  %1530 = load i8** %1529, align 8, !tbaa !14
  %1531 = getelementptr inbounds i8* %1530, i64 -24
  %1532 = bitcast i8* %1531 to %"struct.std::basic_string<char, std::char_traits<char>, std::allocator<char> >::_Rep"*
  %1533 = icmp eq i8* %1531, bitcast ([0 x i64]* @_ZNSs4_Rep20_S_empty_rep_storageE to i8*)
  br i1 %1533, label %_ZNSsD1Ev.exit195, label %1534, !prof !15

; <label>:1534                                    ; preds = %_ZN8TestCaseD2Ev.exit192
  %1535 = getelementptr inbounds i8* %1530, i64 -8
  %1536 = bitcast i8* %1535 to i32*
  br i1 icmp ne (i8* bitcast (i32 (i32*, void (i8*)*)* @__pthread_key_create to i8*), i8* null), label %1537, label %1541

; <label>:1537                                    ; preds = %1534
  %1538 = bitcast i32* %67 to i8*
  call void @llvm.lifetime.start(i64 4, i8* %1538)
  %1539 = atomicrmw volatile add i32* %1536, i32 -1 acq_rel
  store i32 %1539, i32* %67, align 4
  %1540 = load volatile i32* %67, align 4
  call void @llvm.lifetime.end(i64 4, i8* %1538)
  br label %_ZN9__gnu_cxxL27__exchange_and_add_dispatchEPii.exit.i.i.i194

; <label>:1541                                    ; preds = %1534
  %1542 = load i32* %1536, align 4, !tbaa !16
  %1543 = add nsw i32 %1542, -1
  store i32 %1543, i32* %1536, align 4, !tbaa !16
  br label %_ZN9__gnu_cxxL27__exchange_and_add_dispatchEPii.exit.i.i.i194

_ZN9__gnu_cxxL27__exchange_and_add_dispatchEPii.exit.i.i.i194: ; preds = %1541, %1537
  %.0.i.i.i.i193 = phi i32 [ %1540, %1537 ], [ %1542, %1541 ]
  %1544 = icmp slt i32 %.0.i.i.i.i193, 1
  br i1 %1544, label %1545, label %_ZNSsD1Ev.exit195

; <label>:1545                                    ; preds = %_ZN9__gnu_cxxL27__exchange_and_add_dispatchEPii.exit.i.i.i194
  call void @_ZNSs4_Rep10_M_destroyERKSaIcE(%"struct.std::basic_string<char, std::char_traits<char>, std::allocator<char> >::_Rep"* %1532, %"class.std::allocator.0"* %68) #1
  br label %_ZNSsD1Ev.exit195

_ZNSsD1Ev.exit195:                                ; preds = %1545, %_ZN9__gnu_cxxL27__exchange_and_add_dispatchEPii.exit.i.i.i194, %_ZN8TestCaseD2Ev.exit192
  call void @llvm.lifetime.end(i64 1, i8* %1528) #1
  %1546 = getelementptr inbounds %"class.std::allocator.0"* %66, i64 0, i32 0
  call void @llvm.lifetime.start(i64 1, i8* %1546) #1
  %1547 = getelementptr inbounds %"class.std::basic_string"* %243, i64 0, i32 0, i32 0
  %1548 = load i8** %1547, align 8, !tbaa !14
  %1549 = getelementptr inbounds i8* %1548, i64 -24
  %1550 = bitcast i8* %1549 to %"struct.std::basic_string<char, std::char_traits<char>, std::allocator<char> >::_Rep"*
  %1551 = icmp eq i8* %1549, bitcast ([0 x i64]* @_ZNSs4_Rep20_S_empty_rep_storageE to i8*)
  br i1 %1551, label %_ZNSsD1Ev.exit198, label %1552, !prof !15

; <label>:1552                                    ; preds = %_ZNSsD1Ev.exit195
  %1553 = getelementptr inbounds i8* %1548, i64 -8
  %1554 = bitcast i8* %1553 to i32*
  br i1 icmp ne (i8* bitcast (i32 (i32*, void (i8*)*)* @__pthread_key_create to i8*), i8* null), label %1555, label %1559

; <label>:1555                                    ; preds = %1552
  %1556 = bitcast i32* %65 to i8*
  call void @llvm.lifetime.start(i64 4, i8* %1556)
  %1557 = atomicrmw volatile add i32* %1554, i32 -1 acq_rel
  store i32 %1557, i32* %65, align 4
  %1558 = load volatile i32* %65, align 4
  call void @llvm.lifetime.end(i64 4, i8* %1556)
  br label %_ZN9__gnu_cxxL27__exchange_and_add_dispatchEPii.exit.i.i.i197

; <label>:1559                                    ; preds = %1552
  %1560 = load i32* %1554, align 4, !tbaa !16
  %1561 = add nsw i32 %1560, -1
  store i32 %1561, i32* %1554, align 4, !tbaa !16
  br label %_ZN9__gnu_cxxL27__exchange_and_add_dispatchEPii.exit.i.i.i197

_ZN9__gnu_cxxL27__exchange_and_add_dispatchEPii.exit.i.i.i197: ; preds = %1559, %1555
  %.0.i.i.i.i196 = phi i32 [ %1558, %1555 ], [ %1560, %1559 ]
  %1562 = icmp slt i32 %.0.i.i.i.i196, 1
  br i1 %1562, label %1563, label %_ZNSsD1Ev.exit198

; <label>:1563                                    ; preds = %_ZN9__gnu_cxxL27__exchange_and_add_dispatchEPii.exit.i.i.i197
  call void @_ZNSs4_Rep10_M_destroyERKSaIcE(%"struct.std::basic_string<char, std::char_traits<char>, std::allocator<char> >::_Rep"* %1550, %"class.std::allocator.0"* %66) #1
  br label %_ZNSsD1Ev.exit198

_ZNSsD1Ev.exit198:                                ; preds = %1563, %_ZN9__gnu_cxxL27__exchange_and_add_dispatchEPii.exit.i.i.i197, %_ZNSsD1Ev.exit195
  call void @llvm.lifetime.end(i64 1, i8* %1546) #1
  call void @_ZNSsC1EPKcRKSaIcE(%"class.std::basic_string"* %248, i8* getelementptr inbounds ([8 x i8]* @.str14, i64 0, i64 0), %"class.std::allocator.0"* %249) #1
  call void @_ZNSsC1EPKcRKSaIcE(%"class.std::basic_string"* %250, i8* getelementptr inbounds ([12 x i8]* @.str15, i64 0, i64 0), %"class.std::allocator.0"* %251) #1
  %1564 = getelementptr inbounds %class.TestCase* %247, i64 0, i32 0
  call void @_ZNSsC1ERKSs(%"class.std::basic_string"* %1564, %"class.std::basic_string"* %248) #1
  %1565 = getelementptr inbounds %class.TestCase* %247, i64 0, i32 1
  call void @_ZNSsC1ERKSs(%"class.std::basic_string"* %1565, %"class.std::basic_string"* %250) #1
  %1566 = getelementptr inbounds %class.TestCase* %247, i64 0, i32 2
  store i32 1, i32* %1566, align 8, !tbaa !1
  %1567 = getelementptr inbounds %class.TestCase* %247, i64 0, i32 3
  store i32 1, i32* %1567, align 4, !tbaa !9
  %1568 = load %class.TestCase** %292, align 8, !tbaa !10
  %1569 = load %class.TestCase** %294, align 8, !tbaa !13
  %1570 = icmp eq %class.TestCase* %1568, %1569
  br i1 %1570, label %1582, label %1571

; <label>:1571                                    ; preds = %_ZNSsD1Ev.exit198
  %1572 = icmp eq %class.TestCase* %1568, null
  br i1 %1572, label %_ZN9__gnu_cxx14__alloc_traitsISaI8TestCaseEE9constructIS1_EEvRS2_PS1_RKT_.exit.i200, label %1573

; <label>:1573                                    ; preds = %1571
  %1574 = getelementptr inbounds %class.TestCase* %1568, i64 0, i32 0
  call void @_ZNSsC1ERKSs(%"class.std::basic_string"* %1574, %"class.std::basic_string"* %1564) #1
  %1575 = getelementptr inbounds %class.TestCase* %1568, i64 0, i32 1
  call void @_ZNSsC1ERKSs(%"class.std::basic_string"* %1575, %"class.std::basic_string"* %1565) #1
  %1576 = getelementptr inbounds %class.TestCase* %1568, i64 0, i32 2
  %1577 = bitcast i32* %1566 to i64*
  %1578 = bitcast i32* %1576 to i64*
  %1579 = load i64* %1577, align 8
  store i64 %1579, i64* %1578, align 4
  %.pre.i199 = load %class.TestCase** %292, align 8, !tbaa !10
  br label %_ZN9__gnu_cxx14__alloc_traitsISaI8TestCaseEE9constructIS1_EEvRS2_PS1_RKT_.exit.i200

_ZN9__gnu_cxx14__alloc_traitsISaI8TestCaseEE9constructIS1_EEvRS2_PS1_RKT_.exit.i200: ; preds = %1573, %1571
  %1580 = phi %class.TestCase* [ null, %1571 ], [ %.pre.i199, %1573 ]
  %1581 = getelementptr inbounds %class.TestCase* %1580, i64 1
  store %class.TestCase* %1581, %class.TestCase** %292, align 8, !tbaa !10
  br label %_ZNSt6vectorI8TestCaseSaIS0_EE9push_backERKS0_.exit201

; <label>:1582                                    ; preds = %_ZNSsD1Ev.exit198
  call void @_ZNSt6vectorI8TestCaseSaIS0_EE13_M_insert_auxEN9__gnu_cxx17__normal_iteratorIPS0_S2_EERKS0_(%"class.std::vector"* %testCases, %class.TestCase* %1568, %class.TestCase* %247) #1
  br label %_ZNSt6vectorI8TestCaseSaIS0_EE9push_backERKS0_.exit201

_ZNSt6vectorI8TestCaseSaIS0_EE9push_backERKS0_.exit201: ; preds = %1582, %_ZN9__gnu_cxx14__alloc_traitsISaI8TestCaseEE9constructIS1_EEvRS2_PS1_RKT_.exit.i200
  %1583 = getelementptr inbounds %"class.std::allocator.0"* %64, i64 0, i32 0
  call void @llvm.lifetime.start(i64 1, i8* %1583) #1
  %1584 = getelementptr inbounds %class.TestCase* %247, i64 0, i32 1, i32 0, i32 0
  %1585 = load i8** %1584, align 8, !tbaa !14
  %1586 = getelementptr inbounds i8* %1585, i64 -24
  %1587 = bitcast i8* %1586 to %"struct.std::basic_string<char, std::char_traits<char>, std::allocator<char> >::_Rep"*
  %1588 = icmp eq i8* %1586, bitcast ([0 x i64]* @_ZNSs4_Rep20_S_empty_rep_storageE to i8*)
  br i1 %1588, label %_ZNSsD1Ev.exit.i204, label %1589, !prof !15

; <label>:1589                                    ; preds = %_ZNSt6vectorI8TestCaseSaIS0_EE9push_backERKS0_.exit201
  %1590 = getelementptr inbounds i8* %1585, i64 -8
  %1591 = bitcast i8* %1590 to i32*
  br i1 icmp ne (i8* bitcast (i32 (i32*, void (i8*)*)* @__pthread_key_create to i8*), i8* null), label %1592, label %1596

; <label>:1592                                    ; preds = %1589
  %1593 = bitcast i32* %63 to i8*
  call void @llvm.lifetime.start(i64 4, i8* %1593)
  %1594 = atomicrmw volatile add i32* %1591, i32 -1 acq_rel
  store i32 %1594, i32* %63, align 4
  %1595 = load volatile i32* %63, align 4
  call void @llvm.lifetime.end(i64 4, i8* %1593)
  br label %_ZN9__gnu_cxxL27__exchange_and_add_dispatchEPii.exit.i.i.i.i203

; <label>:1596                                    ; preds = %1589
  %1597 = load i32* %1591, align 4, !tbaa !16
  %1598 = add nsw i32 %1597, -1
  store i32 %1598, i32* %1591, align 4, !tbaa !16
  br label %_ZN9__gnu_cxxL27__exchange_and_add_dispatchEPii.exit.i.i.i.i203

_ZN9__gnu_cxxL27__exchange_and_add_dispatchEPii.exit.i.i.i.i203: ; preds = %1596, %1592
  %.0.i.i.i.i.i202 = phi i32 [ %1595, %1592 ], [ %1597, %1596 ]
  %1599 = icmp slt i32 %.0.i.i.i.i.i202, 1
  br i1 %1599, label %1600, label %_ZNSsD1Ev.exit.i204

; <label>:1600                                    ; preds = %_ZN9__gnu_cxxL27__exchange_and_add_dispatchEPii.exit.i.i.i.i203
  call void @_ZNSs4_Rep10_M_destroyERKSaIcE(%"struct.std::basic_string<char, std::char_traits<char>, std::allocator<char> >::_Rep"* %1587, %"class.std::allocator.0"* %64) #1
  br label %_ZNSsD1Ev.exit.i204

_ZNSsD1Ev.exit.i204:                              ; preds = %1600, %_ZN9__gnu_cxxL27__exchange_and_add_dispatchEPii.exit.i.i.i.i203, %_ZNSt6vectorI8TestCaseSaIS0_EE9push_backERKS0_.exit201
  call void @llvm.lifetime.end(i64 1, i8* %1583) #1
  %1601 = getelementptr inbounds %"class.std::allocator.0"* %62, i64 0, i32 0
  call void @llvm.lifetime.start(i64 1, i8* %1601) #1
  %1602 = getelementptr inbounds %class.TestCase* %247, i64 0, i32 0, i32 0, i32 0
  %1603 = load i8** %1602, align 8, !tbaa !14
  %1604 = getelementptr inbounds i8* %1603, i64 -24
  %1605 = bitcast i8* %1604 to %"struct.std::basic_string<char, std::char_traits<char>, std::allocator<char> >::_Rep"*
  %1606 = icmp eq i8* %1604, bitcast ([0 x i64]* @_ZNSs4_Rep20_S_empty_rep_storageE to i8*)
  br i1 %1606, label %_ZN8TestCaseD2Ev.exit207, label %1607, !prof !15

; <label>:1607                                    ; preds = %_ZNSsD1Ev.exit.i204
  %1608 = getelementptr inbounds i8* %1603, i64 -8
  %1609 = bitcast i8* %1608 to i32*
  br i1 icmp ne (i8* bitcast (i32 (i32*, void (i8*)*)* @__pthread_key_create to i8*), i8* null), label %1610, label %1614

; <label>:1610                                    ; preds = %1607
  %1611 = bitcast i32* %61 to i8*
  call void @llvm.lifetime.start(i64 4, i8* %1611)
  %1612 = atomicrmw volatile add i32* %1609, i32 -1 acq_rel
  store i32 %1612, i32* %61, align 4
  %1613 = load volatile i32* %61, align 4
  call void @llvm.lifetime.end(i64 4, i8* %1611)
  br label %_ZN9__gnu_cxxL27__exchange_and_add_dispatchEPii.exit.i.i.i2.i206

; <label>:1614                                    ; preds = %1607
  %1615 = load i32* %1609, align 4, !tbaa !16
  %1616 = add nsw i32 %1615, -1
  store i32 %1616, i32* %1609, align 4, !tbaa !16
  br label %_ZN9__gnu_cxxL27__exchange_and_add_dispatchEPii.exit.i.i.i2.i206

_ZN9__gnu_cxxL27__exchange_and_add_dispatchEPii.exit.i.i.i2.i206: ; preds = %1614, %1610
  %.0.i.i.i.i1.i205 = phi i32 [ %1613, %1610 ], [ %1615, %1614 ]
  %1617 = icmp slt i32 %.0.i.i.i.i1.i205, 1
  br i1 %1617, label %1618, label %_ZN8TestCaseD2Ev.exit207

; <label>:1618                                    ; preds = %_ZN9__gnu_cxxL27__exchange_and_add_dispatchEPii.exit.i.i.i2.i206
  call void @_ZNSs4_Rep10_M_destroyERKSaIcE(%"struct.std::basic_string<char, std::char_traits<char>, std::allocator<char> >::_Rep"* %1605, %"class.std::allocator.0"* %62) #1
  br label %_ZN8TestCaseD2Ev.exit207

_ZN8TestCaseD2Ev.exit207:                         ; preds = %1618, %_ZN9__gnu_cxxL27__exchange_and_add_dispatchEPii.exit.i.i.i2.i206, %_ZNSsD1Ev.exit.i204
  call void @llvm.lifetime.end(i64 1, i8* %1601) #1
  %1619 = getelementptr inbounds %"class.std::allocator.0"* %60, i64 0, i32 0
  call void @llvm.lifetime.start(i64 1, i8* %1619) #1
  %1620 = getelementptr inbounds %"class.std::basic_string"* %250, i64 0, i32 0, i32 0
  %1621 = load i8** %1620, align 8, !tbaa !14
  %1622 = getelementptr inbounds i8* %1621, i64 -24
  %1623 = bitcast i8* %1622 to %"struct.std::basic_string<char, std::char_traits<char>, std::allocator<char> >::_Rep"*
  %1624 = icmp eq i8* %1622, bitcast ([0 x i64]* @_ZNSs4_Rep20_S_empty_rep_storageE to i8*)
  br i1 %1624, label %_ZNSsD1Ev.exit210, label %1625, !prof !15

; <label>:1625                                    ; preds = %_ZN8TestCaseD2Ev.exit207
  %1626 = getelementptr inbounds i8* %1621, i64 -8
  %1627 = bitcast i8* %1626 to i32*
  br i1 icmp ne (i8* bitcast (i32 (i32*, void (i8*)*)* @__pthread_key_create to i8*), i8* null), label %1628, label %1632

; <label>:1628                                    ; preds = %1625
  %1629 = bitcast i32* %59 to i8*
  call void @llvm.lifetime.start(i64 4, i8* %1629)
  %1630 = atomicrmw volatile add i32* %1627, i32 -1 acq_rel
  store i32 %1630, i32* %59, align 4
  %1631 = load volatile i32* %59, align 4
  call void @llvm.lifetime.end(i64 4, i8* %1629)
  br label %_ZN9__gnu_cxxL27__exchange_and_add_dispatchEPii.exit.i.i.i209

; <label>:1632                                    ; preds = %1625
  %1633 = load i32* %1627, align 4, !tbaa !16
  %1634 = add nsw i32 %1633, -1
  store i32 %1634, i32* %1627, align 4, !tbaa !16
  br label %_ZN9__gnu_cxxL27__exchange_and_add_dispatchEPii.exit.i.i.i209

_ZN9__gnu_cxxL27__exchange_and_add_dispatchEPii.exit.i.i.i209: ; preds = %1632, %1628
  %.0.i.i.i.i208 = phi i32 [ %1631, %1628 ], [ %1633, %1632 ]
  %1635 = icmp slt i32 %.0.i.i.i.i208, 1
  br i1 %1635, label %1636, label %_ZNSsD1Ev.exit210

; <label>:1636                                    ; preds = %_ZN9__gnu_cxxL27__exchange_and_add_dispatchEPii.exit.i.i.i209
  call void @_ZNSs4_Rep10_M_destroyERKSaIcE(%"struct.std::basic_string<char, std::char_traits<char>, std::allocator<char> >::_Rep"* %1623, %"class.std::allocator.0"* %60) #1
  br label %_ZNSsD1Ev.exit210

_ZNSsD1Ev.exit210:                                ; preds = %1636, %_ZN9__gnu_cxxL27__exchange_and_add_dispatchEPii.exit.i.i.i209, %_ZN8TestCaseD2Ev.exit207
  call void @llvm.lifetime.end(i64 1, i8* %1619) #1
  %1637 = getelementptr inbounds %"class.std::allocator.0"* %58, i64 0, i32 0
  call void @llvm.lifetime.start(i64 1, i8* %1637) #1
  %1638 = getelementptr inbounds %"class.std::basic_string"* %248, i64 0, i32 0, i32 0
  %1639 = load i8** %1638, align 8, !tbaa !14
  %1640 = getelementptr inbounds i8* %1639, i64 -24
  %1641 = bitcast i8* %1640 to %"struct.std::basic_string<char, std::char_traits<char>, std::allocator<char> >::_Rep"*
  %1642 = icmp eq i8* %1640, bitcast ([0 x i64]* @_ZNSs4_Rep20_S_empty_rep_storageE to i8*)
  br i1 %1642, label %_ZNSsD1Ev.exit213, label %1643, !prof !15

; <label>:1643                                    ; preds = %_ZNSsD1Ev.exit210
  %1644 = getelementptr inbounds i8* %1639, i64 -8
  %1645 = bitcast i8* %1644 to i32*
  br i1 icmp ne (i8* bitcast (i32 (i32*, void (i8*)*)* @__pthread_key_create to i8*), i8* null), label %1646, label %1650

; <label>:1646                                    ; preds = %1643
  %1647 = bitcast i32* %57 to i8*
  call void @llvm.lifetime.start(i64 4, i8* %1647)
  %1648 = atomicrmw volatile add i32* %1645, i32 -1 acq_rel
  store i32 %1648, i32* %57, align 4
  %1649 = load volatile i32* %57, align 4
  call void @llvm.lifetime.end(i64 4, i8* %1647)
  br label %_ZN9__gnu_cxxL27__exchange_and_add_dispatchEPii.exit.i.i.i212

; <label>:1650                                    ; preds = %1643
  %1651 = load i32* %1645, align 4, !tbaa !16
  %1652 = add nsw i32 %1651, -1
  store i32 %1652, i32* %1645, align 4, !tbaa !16
  br label %_ZN9__gnu_cxxL27__exchange_and_add_dispatchEPii.exit.i.i.i212

_ZN9__gnu_cxxL27__exchange_and_add_dispatchEPii.exit.i.i.i212: ; preds = %1650, %1646
  %.0.i.i.i.i211 = phi i32 [ %1649, %1646 ], [ %1651, %1650 ]
  %1653 = icmp slt i32 %.0.i.i.i.i211, 1
  br i1 %1653, label %1654, label %_ZNSsD1Ev.exit213

; <label>:1654                                    ; preds = %_ZN9__gnu_cxxL27__exchange_and_add_dispatchEPii.exit.i.i.i212
  call void @_ZNSs4_Rep10_M_destroyERKSaIcE(%"struct.std::basic_string<char, std::char_traits<char>, std::allocator<char> >::_Rep"* %1641, %"class.std::allocator.0"* %58) #1
  br label %_ZNSsD1Ev.exit213

_ZNSsD1Ev.exit213:                                ; preds = %1654, %_ZN9__gnu_cxxL27__exchange_and_add_dispatchEPii.exit.i.i.i212, %_ZNSsD1Ev.exit210
  call void @llvm.lifetime.end(i64 1, i8* %1637) #1
  call void @_ZNSsC1EPKcRKSaIcE(%"class.std::basic_string"* %253, i8* getelementptr inbounds ([10 x i8]* @.str16, i64 0, i64 0), %"class.std::allocator.0"* %254) #1
  call void @_ZNSsC1EPKcRKSaIcE(%"class.std::basic_string"* %255, i8* getelementptr inbounds ([12 x i8]* @.str15, i64 0, i64 0), %"class.std::allocator.0"* %256) #1
  %1655 = getelementptr inbounds %class.TestCase* %252, i64 0, i32 0
  call void @_ZNSsC1ERKSs(%"class.std::basic_string"* %1655, %"class.std::basic_string"* %253) #1
  %1656 = getelementptr inbounds %class.TestCase* %252, i64 0, i32 1
  call void @_ZNSsC1ERKSs(%"class.std::basic_string"* %1656, %"class.std::basic_string"* %255) #1
  %1657 = getelementptr inbounds %class.TestCase* %252, i64 0, i32 2
  store i32 1, i32* %1657, align 8, !tbaa !1
  %1658 = getelementptr inbounds %class.TestCase* %252, i64 0, i32 3
  store i32 0, i32* %1658, align 4, !tbaa !9
  %1659 = load %class.TestCase** %292, align 8, !tbaa !10
  %1660 = load %class.TestCase** %294, align 8, !tbaa !13
  %1661 = icmp eq %class.TestCase* %1659, %1660
  br i1 %1661, label %1673, label %1662

; <label>:1662                                    ; preds = %_ZNSsD1Ev.exit213
  %1663 = icmp eq %class.TestCase* %1659, null
  br i1 %1663, label %_ZN9__gnu_cxx14__alloc_traitsISaI8TestCaseEE9constructIS1_EEvRS2_PS1_RKT_.exit.i215, label %1664

; <label>:1664                                    ; preds = %1662
  %1665 = getelementptr inbounds %class.TestCase* %1659, i64 0, i32 0
  call void @_ZNSsC1ERKSs(%"class.std::basic_string"* %1665, %"class.std::basic_string"* %1655) #1
  %1666 = getelementptr inbounds %class.TestCase* %1659, i64 0, i32 1
  call void @_ZNSsC1ERKSs(%"class.std::basic_string"* %1666, %"class.std::basic_string"* %1656) #1
  %1667 = getelementptr inbounds %class.TestCase* %1659, i64 0, i32 2
  %1668 = bitcast i32* %1657 to i64*
  %1669 = bitcast i32* %1667 to i64*
  %1670 = load i64* %1668, align 8
  store i64 %1670, i64* %1669, align 4
  %.pre.i214 = load %class.TestCase** %292, align 8, !tbaa !10
  br label %_ZN9__gnu_cxx14__alloc_traitsISaI8TestCaseEE9constructIS1_EEvRS2_PS1_RKT_.exit.i215

_ZN9__gnu_cxx14__alloc_traitsISaI8TestCaseEE9constructIS1_EEvRS2_PS1_RKT_.exit.i215: ; preds = %1664, %1662
  %1671 = phi %class.TestCase* [ null, %1662 ], [ %.pre.i214, %1664 ]
  %1672 = getelementptr inbounds %class.TestCase* %1671, i64 1
  store %class.TestCase* %1672, %class.TestCase** %292, align 8, !tbaa !10
  br label %_ZNSt6vectorI8TestCaseSaIS0_EE9push_backERKS0_.exit216

; <label>:1673                                    ; preds = %_ZNSsD1Ev.exit213
  call void @_ZNSt6vectorI8TestCaseSaIS0_EE13_M_insert_auxEN9__gnu_cxx17__normal_iteratorIPS0_S2_EERKS0_(%"class.std::vector"* %testCases, %class.TestCase* %1659, %class.TestCase* %252) #1
  br label %_ZNSt6vectorI8TestCaseSaIS0_EE9push_backERKS0_.exit216

_ZNSt6vectorI8TestCaseSaIS0_EE9push_backERKS0_.exit216: ; preds = %1673, %_ZN9__gnu_cxx14__alloc_traitsISaI8TestCaseEE9constructIS1_EEvRS2_PS1_RKT_.exit.i215
  %1674 = getelementptr inbounds %"class.std::allocator.0"* %56, i64 0, i32 0
  call void @llvm.lifetime.start(i64 1, i8* %1674) #1
  %1675 = getelementptr inbounds %class.TestCase* %252, i64 0, i32 1, i32 0, i32 0
  %1676 = load i8** %1675, align 8, !tbaa !14
  %1677 = getelementptr inbounds i8* %1676, i64 -24
  %1678 = bitcast i8* %1677 to %"struct.std::basic_string<char, std::char_traits<char>, std::allocator<char> >::_Rep"*
  %1679 = icmp eq i8* %1677, bitcast ([0 x i64]* @_ZNSs4_Rep20_S_empty_rep_storageE to i8*)
  br i1 %1679, label %_ZNSsD1Ev.exit.i219, label %1680, !prof !15

; <label>:1680                                    ; preds = %_ZNSt6vectorI8TestCaseSaIS0_EE9push_backERKS0_.exit216
  %1681 = getelementptr inbounds i8* %1676, i64 -8
  %1682 = bitcast i8* %1681 to i32*
  br i1 icmp ne (i8* bitcast (i32 (i32*, void (i8*)*)* @__pthread_key_create to i8*), i8* null), label %1683, label %1687

; <label>:1683                                    ; preds = %1680
  %1684 = bitcast i32* %55 to i8*
  call void @llvm.lifetime.start(i64 4, i8* %1684)
  %1685 = atomicrmw volatile add i32* %1682, i32 -1 acq_rel
  store i32 %1685, i32* %55, align 4
  %1686 = load volatile i32* %55, align 4
  call void @llvm.lifetime.end(i64 4, i8* %1684)
  br label %_ZN9__gnu_cxxL27__exchange_and_add_dispatchEPii.exit.i.i.i.i218

; <label>:1687                                    ; preds = %1680
  %1688 = load i32* %1682, align 4, !tbaa !16
  %1689 = add nsw i32 %1688, -1
  store i32 %1689, i32* %1682, align 4, !tbaa !16
  br label %_ZN9__gnu_cxxL27__exchange_and_add_dispatchEPii.exit.i.i.i.i218

_ZN9__gnu_cxxL27__exchange_and_add_dispatchEPii.exit.i.i.i.i218: ; preds = %1687, %1683
  %.0.i.i.i.i.i217 = phi i32 [ %1686, %1683 ], [ %1688, %1687 ]
  %1690 = icmp slt i32 %.0.i.i.i.i.i217, 1
  br i1 %1690, label %1691, label %_ZNSsD1Ev.exit.i219

; <label>:1691                                    ; preds = %_ZN9__gnu_cxxL27__exchange_and_add_dispatchEPii.exit.i.i.i.i218
  call void @_ZNSs4_Rep10_M_destroyERKSaIcE(%"struct.std::basic_string<char, std::char_traits<char>, std::allocator<char> >::_Rep"* %1678, %"class.std::allocator.0"* %56) #1
  br label %_ZNSsD1Ev.exit.i219

_ZNSsD1Ev.exit.i219:                              ; preds = %1691, %_ZN9__gnu_cxxL27__exchange_and_add_dispatchEPii.exit.i.i.i.i218, %_ZNSt6vectorI8TestCaseSaIS0_EE9push_backERKS0_.exit216
  call void @llvm.lifetime.end(i64 1, i8* %1674) #1
  %1692 = getelementptr inbounds %"class.std::allocator.0"* %54, i64 0, i32 0
  call void @llvm.lifetime.start(i64 1, i8* %1692) #1
  %1693 = getelementptr inbounds %class.TestCase* %252, i64 0, i32 0, i32 0, i32 0
  %1694 = load i8** %1693, align 8, !tbaa !14
  %1695 = getelementptr inbounds i8* %1694, i64 -24
  %1696 = bitcast i8* %1695 to %"struct.std::basic_string<char, std::char_traits<char>, std::allocator<char> >::_Rep"*
  %1697 = icmp eq i8* %1695, bitcast ([0 x i64]* @_ZNSs4_Rep20_S_empty_rep_storageE to i8*)
  br i1 %1697, label %_ZN8TestCaseD2Ev.exit222, label %1698, !prof !15

; <label>:1698                                    ; preds = %_ZNSsD1Ev.exit.i219
  %1699 = getelementptr inbounds i8* %1694, i64 -8
  %1700 = bitcast i8* %1699 to i32*
  br i1 icmp ne (i8* bitcast (i32 (i32*, void (i8*)*)* @__pthread_key_create to i8*), i8* null), label %1701, label %1705

; <label>:1701                                    ; preds = %1698
  %1702 = bitcast i32* %53 to i8*
  call void @llvm.lifetime.start(i64 4, i8* %1702)
  %1703 = atomicrmw volatile add i32* %1700, i32 -1 acq_rel
  store i32 %1703, i32* %53, align 4
  %1704 = load volatile i32* %53, align 4
  call void @llvm.lifetime.end(i64 4, i8* %1702)
  br label %_ZN9__gnu_cxxL27__exchange_and_add_dispatchEPii.exit.i.i.i2.i221

; <label>:1705                                    ; preds = %1698
  %1706 = load i32* %1700, align 4, !tbaa !16
  %1707 = add nsw i32 %1706, -1
  store i32 %1707, i32* %1700, align 4, !tbaa !16
  br label %_ZN9__gnu_cxxL27__exchange_and_add_dispatchEPii.exit.i.i.i2.i221

_ZN9__gnu_cxxL27__exchange_and_add_dispatchEPii.exit.i.i.i2.i221: ; preds = %1705, %1701
  %.0.i.i.i.i1.i220 = phi i32 [ %1704, %1701 ], [ %1706, %1705 ]
  %1708 = icmp slt i32 %.0.i.i.i.i1.i220, 1
  br i1 %1708, label %1709, label %_ZN8TestCaseD2Ev.exit222

; <label>:1709                                    ; preds = %_ZN9__gnu_cxxL27__exchange_and_add_dispatchEPii.exit.i.i.i2.i221
  call void @_ZNSs4_Rep10_M_destroyERKSaIcE(%"struct.std::basic_string<char, std::char_traits<char>, std::allocator<char> >::_Rep"* %1696, %"class.std::allocator.0"* %54) #1
  br label %_ZN8TestCaseD2Ev.exit222

_ZN8TestCaseD2Ev.exit222:                         ; preds = %1709, %_ZN9__gnu_cxxL27__exchange_and_add_dispatchEPii.exit.i.i.i2.i221, %_ZNSsD1Ev.exit.i219
  call void @llvm.lifetime.end(i64 1, i8* %1692) #1
  %1710 = getelementptr inbounds %"class.std::allocator.0"* %52, i64 0, i32 0
  call void @llvm.lifetime.start(i64 1, i8* %1710) #1
  %1711 = getelementptr inbounds %"class.std::basic_string"* %255, i64 0, i32 0, i32 0
  %1712 = load i8** %1711, align 8, !tbaa !14
  %1713 = getelementptr inbounds i8* %1712, i64 -24
  %1714 = bitcast i8* %1713 to %"struct.std::basic_string<char, std::char_traits<char>, std::allocator<char> >::_Rep"*
  %1715 = icmp eq i8* %1713, bitcast ([0 x i64]* @_ZNSs4_Rep20_S_empty_rep_storageE to i8*)
  br i1 %1715, label %_ZNSsD1Ev.exit225, label %1716, !prof !15

; <label>:1716                                    ; preds = %_ZN8TestCaseD2Ev.exit222
  %1717 = getelementptr inbounds i8* %1712, i64 -8
  %1718 = bitcast i8* %1717 to i32*
  br i1 icmp ne (i8* bitcast (i32 (i32*, void (i8*)*)* @__pthread_key_create to i8*), i8* null), label %1719, label %1723

; <label>:1719                                    ; preds = %1716
  %1720 = bitcast i32* %51 to i8*
  call void @llvm.lifetime.start(i64 4, i8* %1720)
  %1721 = atomicrmw volatile add i32* %1718, i32 -1 acq_rel
  store i32 %1721, i32* %51, align 4
  %1722 = load volatile i32* %51, align 4
  call void @llvm.lifetime.end(i64 4, i8* %1720)
  br label %_ZN9__gnu_cxxL27__exchange_and_add_dispatchEPii.exit.i.i.i224

; <label>:1723                                    ; preds = %1716
  %1724 = load i32* %1718, align 4, !tbaa !16
  %1725 = add nsw i32 %1724, -1
  store i32 %1725, i32* %1718, align 4, !tbaa !16
  br label %_ZN9__gnu_cxxL27__exchange_and_add_dispatchEPii.exit.i.i.i224

_ZN9__gnu_cxxL27__exchange_and_add_dispatchEPii.exit.i.i.i224: ; preds = %1723, %1719
  %.0.i.i.i.i223 = phi i32 [ %1722, %1719 ], [ %1724, %1723 ]
  %1726 = icmp slt i32 %.0.i.i.i.i223, 1
  br i1 %1726, label %1727, label %_ZNSsD1Ev.exit225

; <label>:1727                                    ; preds = %_ZN9__gnu_cxxL27__exchange_and_add_dispatchEPii.exit.i.i.i224
  call void @_ZNSs4_Rep10_M_destroyERKSaIcE(%"struct.std::basic_string<char, std::char_traits<char>, std::allocator<char> >::_Rep"* %1714, %"class.std::allocator.0"* %52) #1
  br label %_ZNSsD1Ev.exit225

_ZNSsD1Ev.exit225:                                ; preds = %1727, %_ZN9__gnu_cxxL27__exchange_and_add_dispatchEPii.exit.i.i.i224, %_ZN8TestCaseD2Ev.exit222
  call void @llvm.lifetime.end(i64 1, i8* %1710) #1
  %1728 = getelementptr inbounds %"class.std::allocator.0"* %50, i64 0, i32 0
  call void @llvm.lifetime.start(i64 1, i8* %1728) #1
  %1729 = getelementptr inbounds %"class.std::basic_string"* %253, i64 0, i32 0, i32 0
  %1730 = load i8** %1729, align 8, !tbaa !14
  %1731 = getelementptr inbounds i8* %1730, i64 -24
  %1732 = bitcast i8* %1731 to %"struct.std::basic_string<char, std::char_traits<char>, std::allocator<char> >::_Rep"*
  %1733 = icmp eq i8* %1731, bitcast ([0 x i64]* @_ZNSs4_Rep20_S_empty_rep_storageE to i8*)
  br i1 %1733, label %_ZNSsD1Ev.exit228, label %1734, !prof !15

; <label>:1734                                    ; preds = %_ZNSsD1Ev.exit225
  %1735 = getelementptr inbounds i8* %1730, i64 -8
  %1736 = bitcast i8* %1735 to i32*
  br i1 icmp ne (i8* bitcast (i32 (i32*, void (i8*)*)* @__pthread_key_create to i8*), i8* null), label %1737, label %1741

; <label>:1737                                    ; preds = %1734
  %1738 = bitcast i32* %49 to i8*
  call void @llvm.lifetime.start(i64 4, i8* %1738)
  %1739 = atomicrmw volatile add i32* %1736, i32 -1 acq_rel
  store i32 %1739, i32* %49, align 4
  %1740 = load volatile i32* %49, align 4
  call void @llvm.lifetime.end(i64 4, i8* %1738)
  br label %_ZN9__gnu_cxxL27__exchange_and_add_dispatchEPii.exit.i.i.i227

; <label>:1741                                    ; preds = %1734
  %1742 = load i32* %1736, align 4, !tbaa !16
  %1743 = add nsw i32 %1742, -1
  store i32 %1743, i32* %1736, align 4, !tbaa !16
  br label %_ZN9__gnu_cxxL27__exchange_and_add_dispatchEPii.exit.i.i.i227

_ZN9__gnu_cxxL27__exchange_and_add_dispatchEPii.exit.i.i.i227: ; preds = %1741, %1737
  %.0.i.i.i.i226 = phi i32 [ %1740, %1737 ], [ %1742, %1741 ]
  %1744 = icmp slt i32 %.0.i.i.i.i226, 1
  br i1 %1744, label %1745, label %_ZNSsD1Ev.exit228

; <label>:1745                                    ; preds = %_ZN9__gnu_cxxL27__exchange_and_add_dispatchEPii.exit.i.i.i227
  call void @_ZNSs4_Rep10_M_destroyERKSaIcE(%"struct.std::basic_string<char, std::char_traits<char>, std::allocator<char> >::_Rep"* %1732, %"class.std::allocator.0"* %50) #1
  br label %_ZNSsD1Ev.exit228

_ZNSsD1Ev.exit228:                                ; preds = %1745, %_ZN9__gnu_cxxL27__exchange_and_add_dispatchEPii.exit.i.i.i227, %_ZNSsD1Ev.exit225
  call void @llvm.lifetime.end(i64 1, i8* %1728) #1
  call void @_ZNSsC1EPKcRKSaIcE(%"class.std::basic_string"* %258, i8* getelementptr inbounds ([8 x i8]* @.str14, i64 0, i64 0), %"class.std::allocator.0"* %259) #1
  call void @_ZNSsC1EPKcRKSaIcE(%"class.std::basic_string"* %260, i8* getelementptr inbounds ([13 x i8]* @.str17, i64 0, i64 0), %"class.std::allocator.0"* %261) #1
  %1746 = getelementptr inbounds %class.TestCase* %257, i64 0, i32 0
  call void @_ZNSsC1ERKSs(%"class.std::basic_string"* %1746, %"class.std::basic_string"* %258) #1
  %1747 = getelementptr inbounds %class.TestCase* %257, i64 0, i32 1
  call void @_ZNSsC1ERKSs(%"class.std::basic_string"* %1747, %"class.std::basic_string"* %260) #1
  %1748 = getelementptr inbounds %class.TestCase* %257, i64 0, i32 2
  store i32 0, i32* %1748, align 8, !tbaa !1
  %1749 = getelementptr inbounds %class.TestCase* %257, i64 0, i32 3
  store i32 0, i32* %1749, align 4, !tbaa !9
  %1750 = load %class.TestCase** %292, align 8, !tbaa !10
  %1751 = load %class.TestCase** %294, align 8, !tbaa !13
  %1752 = icmp eq %class.TestCase* %1750, %1751
  br i1 %1752, label %1764, label %1753

; <label>:1753                                    ; preds = %_ZNSsD1Ev.exit228
  %1754 = icmp eq %class.TestCase* %1750, null
  br i1 %1754, label %_ZN9__gnu_cxx14__alloc_traitsISaI8TestCaseEE9constructIS1_EEvRS2_PS1_RKT_.exit.i230, label %1755

; <label>:1755                                    ; preds = %1753
  %1756 = getelementptr inbounds %class.TestCase* %1750, i64 0, i32 0
  call void @_ZNSsC1ERKSs(%"class.std::basic_string"* %1756, %"class.std::basic_string"* %1746) #1
  %1757 = getelementptr inbounds %class.TestCase* %1750, i64 0, i32 1
  call void @_ZNSsC1ERKSs(%"class.std::basic_string"* %1757, %"class.std::basic_string"* %1747) #1
  %1758 = getelementptr inbounds %class.TestCase* %1750, i64 0, i32 2
  %1759 = bitcast i32* %1748 to i64*
  %1760 = bitcast i32* %1758 to i64*
  %1761 = load i64* %1759, align 8
  store i64 %1761, i64* %1760, align 4
  %.pre.i229 = load %class.TestCase** %292, align 8, !tbaa !10
  br label %_ZN9__gnu_cxx14__alloc_traitsISaI8TestCaseEE9constructIS1_EEvRS2_PS1_RKT_.exit.i230

_ZN9__gnu_cxx14__alloc_traitsISaI8TestCaseEE9constructIS1_EEvRS2_PS1_RKT_.exit.i230: ; preds = %1755, %1753
  %1762 = phi %class.TestCase* [ null, %1753 ], [ %.pre.i229, %1755 ]
  %1763 = getelementptr inbounds %class.TestCase* %1762, i64 1
  store %class.TestCase* %1763, %class.TestCase** %292, align 8, !tbaa !10
  br label %_ZNSt6vectorI8TestCaseSaIS0_EE9push_backERKS0_.exit231

; <label>:1764                                    ; preds = %_ZNSsD1Ev.exit228
  call void @_ZNSt6vectorI8TestCaseSaIS0_EE13_M_insert_auxEN9__gnu_cxx17__normal_iteratorIPS0_S2_EERKS0_(%"class.std::vector"* %testCases, %class.TestCase* %1750, %class.TestCase* %257) #1
  br label %_ZNSt6vectorI8TestCaseSaIS0_EE9push_backERKS0_.exit231

_ZNSt6vectorI8TestCaseSaIS0_EE9push_backERKS0_.exit231: ; preds = %1764, %_ZN9__gnu_cxx14__alloc_traitsISaI8TestCaseEE9constructIS1_EEvRS2_PS1_RKT_.exit.i230
  %1765 = getelementptr inbounds %"class.std::allocator.0"* %48, i64 0, i32 0
  call void @llvm.lifetime.start(i64 1, i8* %1765) #1
  %1766 = getelementptr inbounds %class.TestCase* %257, i64 0, i32 1, i32 0, i32 0
  %1767 = load i8** %1766, align 8, !tbaa !14
  %1768 = getelementptr inbounds i8* %1767, i64 -24
  %1769 = bitcast i8* %1768 to %"struct.std::basic_string<char, std::char_traits<char>, std::allocator<char> >::_Rep"*
  %1770 = icmp eq i8* %1768, bitcast ([0 x i64]* @_ZNSs4_Rep20_S_empty_rep_storageE to i8*)
  br i1 %1770, label %_ZNSsD1Ev.exit.i234, label %1771, !prof !15

; <label>:1771                                    ; preds = %_ZNSt6vectorI8TestCaseSaIS0_EE9push_backERKS0_.exit231
  %1772 = getelementptr inbounds i8* %1767, i64 -8
  %1773 = bitcast i8* %1772 to i32*
  br i1 icmp ne (i8* bitcast (i32 (i32*, void (i8*)*)* @__pthread_key_create to i8*), i8* null), label %1774, label %1778

; <label>:1774                                    ; preds = %1771
  %1775 = bitcast i32* %47 to i8*
  call void @llvm.lifetime.start(i64 4, i8* %1775)
  %1776 = atomicrmw volatile add i32* %1773, i32 -1 acq_rel
  store i32 %1776, i32* %47, align 4
  %1777 = load volatile i32* %47, align 4
  call void @llvm.lifetime.end(i64 4, i8* %1775)
  br label %_ZN9__gnu_cxxL27__exchange_and_add_dispatchEPii.exit.i.i.i.i233

; <label>:1778                                    ; preds = %1771
  %1779 = load i32* %1773, align 4, !tbaa !16
  %1780 = add nsw i32 %1779, -1
  store i32 %1780, i32* %1773, align 4, !tbaa !16
  br label %_ZN9__gnu_cxxL27__exchange_and_add_dispatchEPii.exit.i.i.i.i233

_ZN9__gnu_cxxL27__exchange_and_add_dispatchEPii.exit.i.i.i.i233: ; preds = %1778, %1774
  %.0.i.i.i.i.i232 = phi i32 [ %1777, %1774 ], [ %1779, %1778 ]
  %1781 = icmp slt i32 %.0.i.i.i.i.i232, 1
  br i1 %1781, label %1782, label %_ZNSsD1Ev.exit.i234

; <label>:1782                                    ; preds = %_ZN9__gnu_cxxL27__exchange_and_add_dispatchEPii.exit.i.i.i.i233
  call void @_ZNSs4_Rep10_M_destroyERKSaIcE(%"struct.std::basic_string<char, std::char_traits<char>, std::allocator<char> >::_Rep"* %1769, %"class.std::allocator.0"* %48) #1
  br label %_ZNSsD1Ev.exit.i234

_ZNSsD1Ev.exit.i234:                              ; preds = %1782, %_ZN9__gnu_cxxL27__exchange_and_add_dispatchEPii.exit.i.i.i.i233, %_ZNSt6vectorI8TestCaseSaIS0_EE9push_backERKS0_.exit231
  call void @llvm.lifetime.end(i64 1, i8* %1765) #1
  %1783 = getelementptr inbounds %"class.std::allocator.0"* %46, i64 0, i32 0
  call void @llvm.lifetime.start(i64 1, i8* %1783) #1
  %1784 = getelementptr inbounds %class.TestCase* %257, i64 0, i32 0, i32 0, i32 0
  %1785 = load i8** %1784, align 8, !tbaa !14
  %1786 = getelementptr inbounds i8* %1785, i64 -24
  %1787 = bitcast i8* %1786 to %"struct.std::basic_string<char, std::char_traits<char>, std::allocator<char> >::_Rep"*
  %1788 = icmp eq i8* %1786, bitcast ([0 x i64]* @_ZNSs4_Rep20_S_empty_rep_storageE to i8*)
  br i1 %1788, label %_ZN8TestCaseD2Ev.exit237, label %1789, !prof !15

; <label>:1789                                    ; preds = %_ZNSsD1Ev.exit.i234
  %1790 = getelementptr inbounds i8* %1785, i64 -8
  %1791 = bitcast i8* %1790 to i32*
  br i1 icmp ne (i8* bitcast (i32 (i32*, void (i8*)*)* @__pthread_key_create to i8*), i8* null), label %1792, label %1796

; <label>:1792                                    ; preds = %1789
  %1793 = bitcast i32* %45 to i8*
  call void @llvm.lifetime.start(i64 4, i8* %1793)
  %1794 = atomicrmw volatile add i32* %1791, i32 -1 acq_rel
  store i32 %1794, i32* %45, align 4
  %1795 = load volatile i32* %45, align 4
  call void @llvm.lifetime.end(i64 4, i8* %1793)
  br label %_ZN9__gnu_cxxL27__exchange_and_add_dispatchEPii.exit.i.i.i2.i236

; <label>:1796                                    ; preds = %1789
  %1797 = load i32* %1791, align 4, !tbaa !16
  %1798 = add nsw i32 %1797, -1
  store i32 %1798, i32* %1791, align 4, !tbaa !16
  br label %_ZN9__gnu_cxxL27__exchange_and_add_dispatchEPii.exit.i.i.i2.i236

_ZN9__gnu_cxxL27__exchange_and_add_dispatchEPii.exit.i.i.i2.i236: ; preds = %1796, %1792
  %.0.i.i.i.i1.i235 = phi i32 [ %1795, %1792 ], [ %1797, %1796 ]
  %1799 = icmp slt i32 %.0.i.i.i.i1.i235, 1
  br i1 %1799, label %1800, label %_ZN8TestCaseD2Ev.exit237

; <label>:1800                                    ; preds = %_ZN9__gnu_cxxL27__exchange_and_add_dispatchEPii.exit.i.i.i2.i236
  call void @_ZNSs4_Rep10_M_destroyERKSaIcE(%"struct.std::basic_string<char, std::char_traits<char>, std::allocator<char> >::_Rep"* %1787, %"class.std::allocator.0"* %46) #1
  br label %_ZN8TestCaseD2Ev.exit237

_ZN8TestCaseD2Ev.exit237:                         ; preds = %1800, %_ZN9__gnu_cxxL27__exchange_and_add_dispatchEPii.exit.i.i.i2.i236, %_ZNSsD1Ev.exit.i234
  call void @llvm.lifetime.end(i64 1, i8* %1783) #1
  %1801 = getelementptr inbounds %"class.std::allocator.0"* %44, i64 0, i32 0
  call void @llvm.lifetime.start(i64 1, i8* %1801) #1
  %1802 = getelementptr inbounds %"class.std::basic_string"* %260, i64 0, i32 0, i32 0
  %1803 = load i8** %1802, align 8, !tbaa !14
  %1804 = getelementptr inbounds i8* %1803, i64 -24
  %1805 = bitcast i8* %1804 to %"struct.std::basic_string<char, std::char_traits<char>, std::allocator<char> >::_Rep"*
  %1806 = icmp eq i8* %1804, bitcast ([0 x i64]* @_ZNSs4_Rep20_S_empty_rep_storageE to i8*)
  br i1 %1806, label %_ZNSsD1Ev.exit240, label %1807, !prof !15

; <label>:1807                                    ; preds = %_ZN8TestCaseD2Ev.exit237
  %1808 = getelementptr inbounds i8* %1803, i64 -8
  %1809 = bitcast i8* %1808 to i32*
  br i1 icmp ne (i8* bitcast (i32 (i32*, void (i8*)*)* @__pthread_key_create to i8*), i8* null), label %1810, label %1814

; <label>:1810                                    ; preds = %1807
  %1811 = bitcast i32* %43 to i8*
  call void @llvm.lifetime.start(i64 4, i8* %1811)
  %1812 = atomicrmw volatile add i32* %1809, i32 -1 acq_rel
  store i32 %1812, i32* %43, align 4
  %1813 = load volatile i32* %43, align 4
  call void @llvm.lifetime.end(i64 4, i8* %1811)
  br label %_ZN9__gnu_cxxL27__exchange_and_add_dispatchEPii.exit.i.i.i239

; <label>:1814                                    ; preds = %1807
  %1815 = load i32* %1809, align 4, !tbaa !16
  %1816 = add nsw i32 %1815, -1
  store i32 %1816, i32* %1809, align 4, !tbaa !16
  br label %_ZN9__gnu_cxxL27__exchange_and_add_dispatchEPii.exit.i.i.i239

_ZN9__gnu_cxxL27__exchange_and_add_dispatchEPii.exit.i.i.i239: ; preds = %1814, %1810
  %.0.i.i.i.i238 = phi i32 [ %1813, %1810 ], [ %1815, %1814 ]
  %1817 = icmp slt i32 %.0.i.i.i.i238, 1
  br i1 %1817, label %1818, label %_ZNSsD1Ev.exit240

; <label>:1818                                    ; preds = %_ZN9__gnu_cxxL27__exchange_and_add_dispatchEPii.exit.i.i.i239
  call void @_ZNSs4_Rep10_M_destroyERKSaIcE(%"struct.std::basic_string<char, std::char_traits<char>, std::allocator<char> >::_Rep"* %1805, %"class.std::allocator.0"* %44) #1
  br label %_ZNSsD1Ev.exit240

_ZNSsD1Ev.exit240:                                ; preds = %1818, %_ZN9__gnu_cxxL27__exchange_and_add_dispatchEPii.exit.i.i.i239, %_ZN8TestCaseD2Ev.exit237
  call void @llvm.lifetime.end(i64 1, i8* %1801) #1
  %1819 = getelementptr inbounds %"class.std::allocator.0"* %42, i64 0, i32 0
  call void @llvm.lifetime.start(i64 1, i8* %1819) #1
  %1820 = getelementptr inbounds %"class.std::basic_string"* %258, i64 0, i32 0, i32 0
  %1821 = load i8** %1820, align 8, !tbaa !14
  %1822 = getelementptr inbounds i8* %1821, i64 -24
  %1823 = bitcast i8* %1822 to %"struct.std::basic_string<char, std::char_traits<char>, std::allocator<char> >::_Rep"*
  %1824 = icmp eq i8* %1822, bitcast ([0 x i64]* @_ZNSs4_Rep20_S_empty_rep_storageE to i8*)
  br i1 %1824, label %_ZNSsD1Ev.exit243, label %1825, !prof !15

; <label>:1825                                    ; preds = %_ZNSsD1Ev.exit240
  %1826 = getelementptr inbounds i8* %1821, i64 -8
  %1827 = bitcast i8* %1826 to i32*
  br i1 icmp ne (i8* bitcast (i32 (i32*, void (i8*)*)* @__pthread_key_create to i8*), i8* null), label %1828, label %1832

; <label>:1828                                    ; preds = %1825
  %1829 = bitcast i32* %41 to i8*
  call void @llvm.lifetime.start(i64 4, i8* %1829)
  %1830 = atomicrmw volatile add i32* %1827, i32 -1 acq_rel
  store i32 %1830, i32* %41, align 4
  %1831 = load volatile i32* %41, align 4
  call void @llvm.lifetime.end(i64 4, i8* %1829)
  br label %_ZN9__gnu_cxxL27__exchange_and_add_dispatchEPii.exit.i.i.i242

; <label>:1832                                    ; preds = %1825
  %1833 = load i32* %1827, align 4, !tbaa !16
  %1834 = add nsw i32 %1833, -1
  store i32 %1834, i32* %1827, align 4, !tbaa !16
  br label %_ZN9__gnu_cxxL27__exchange_and_add_dispatchEPii.exit.i.i.i242

_ZN9__gnu_cxxL27__exchange_and_add_dispatchEPii.exit.i.i.i242: ; preds = %1832, %1828
  %.0.i.i.i.i241 = phi i32 [ %1831, %1828 ], [ %1833, %1832 ]
  %1835 = icmp slt i32 %.0.i.i.i.i241, 1
  br i1 %1835, label %1836, label %_ZNSsD1Ev.exit243

; <label>:1836                                    ; preds = %_ZN9__gnu_cxxL27__exchange_and_add_dispatchEPii.exit.i.i.i242
  call void @_ZNSs4_Rep10_M_destroyERKSaIcE(%"struct.std::basic_string<char, std::char_traits<char>, std::allocator<char> >::_Rep"* %1823, %"class.std::allocator.0"* %42) #1
  br label %_ZNSsD1Ev.exit243

_ZNSsD1Ev.exit243:                                ; preds = %1836, %_ZN9__gnu_cxxL27__exchange_and_add_dispatchEPii.exit.i.i.i242, %_ZNSsD1Ev.exit240
  call void @llvm.lifetime.end(i64 1, i8* %1819) #1
  call void @_ZNSsC1EPKcRKSaIcE(%"class.std::basic_string"* %263, i8* getelementptr inbounds ([8 x i8]* @.str14, i64 0, i64 0), %"class.std::allocator.0"* %264) #1
  call void @_ZNSsC1EPKcRKSaIcE(%"class.std::basic_string"* %265, i8* getelementptr inbounds ([8 x i8]* @.str18, i64 0, i64 0), %"class.std::allocator.0"* %266) #1
  %1837 = getelementptr inbounds %class.TestCase* %262, i64 0, i32 0
  call void @_ZNSsC1ERKSs(%"class.std::basic_string"* %1837, %"class.std::basic_string"* %263) #1
  %1838 = getelementptr inbounds %class.TestCase* %262, i64 0, i32 1
  call void @_ZNSsC1ERKSs(%"class.std::basic_string"* %1838, %"class.std::basic_string"* %265) #1
  %1839 = getelementptr inbounds %class.TestCase* %262, i64 0, i32 2
  store i32 4, i32* %1839, align 8, !tbaa !1
  %1840 = getelementptr inbounds %class.TestCase* %262, i64 0, i32 3
  store i32 1, i32* %1840, align 4, !tbaa !9
  %1841 = load %class.TestCase** %292, align 8, !tbaa !10
  %1842 = load %class.TestCase** %294, align 8, !tbaa !13
  %1843 = icmp eq %class.TestCase* %1841, %1842
  br i1 %1843, label %1855, label %1844

; <label>:1844                                    ; preds = %_ZNSsD1Ev.exit243
  %1845 = icmp eq %class.TestCase* %1841, null
  br i1 %1845, label %_ZN9__gnu_cxx14__alloc_traitsISaI8TestCaseEE9constructIS1_EEvRS2_PS1_RKT_.exit.i245, label %1846

; <label>:1846                                    ; preds = %1844
  %1847 = getelementptr inbounds %class.TestCase* %1841, i64 0, i32 0
  call void @_ZNSsC1ERKSs(%"class.std::basic_string"* %1847, %"class.std::basic_string"* %1837) #1
  %1848 = getelementptr inbounds %class.TestCase* %1841, i64 0, i32 1
  call void @_ZNSsC1ERKSs(%"class.std::basic_string"* %1848, %"class.std::basic_string"* %1838) #1
  %1849 = getelementptr inbounds %class.TestCase* %1841, i64 0, i32 2
  %1850 = bitcast i32* %1839 to i64*
  %1851 = bitcast i32* %1849 to i64*
  %1852 = load i64* %1850, align 8
  store i64 %1852, i64* %1851, align 4
  %.pre.i244 = load %class.TestCase** %292, align 8, !tbaa !10
  br label %_ZN9__gnu_cxx14__alloc_traitsISaI8TestCaseEE9constructIS1_EEvRS2_PS1_RKT_.exit.i245

_ZN9__gnu_cxx14__alloc_traitsISaI8TestCaseEE9constructIS1_EEvRS2_PS1_RKT_.exit.i245: ; preds = %1846, %1844
  %1853 = phi %class.TestCase* [ null, %1844 ], [ %.pre.i244, %1846 ]
  %1854 = getelementptr inbounds %class.TestCase* %1853, i64 1
  store %class.TestCase* %1854, %class.TestCase** %292, align 8, !tbaa !10
  br label %_ZNSt6vectorI8TestCaseSaIS0_EE9push_backERKS0_.exit246

; <label>:1855                                    ; preds = %_ZNSsD1Ev.exit243
  call void @_ZNSt6vectorI8TestCaseSaIS0_EE13_M_insert_auxEN9__gnu_cxx17__normal_iteratorIPS0_S2_EERKS0_(%"class.std::vector"* %testCases, %class.TestCase* %1841, %class.TestCase* %262) #1
  br label %_ZNSt6vectorI8TestCaseSaIS0_EE9push_backERKS0_.exit246

_ZNSt6vectorI8TestCaseSaIS0_EE9push_backERKS0_.exit246: ; preds = %1855, %_ZN9__gnu_cxx14__alloc_traitsISaI8TestCaseEE9constructIS1_EEvRS2_PS1_RKT_.exit.i245
  %1856 = getelementptr inbounds %"class.std::allocator.0"* %40, i64 0, i32 0
  call void @llvm.lifetime.start(i64 1, i8* %1856) #1
  %1857 = getelementptr inbounds %class.TestCase* %262, i64 0, i32 1, i32 0, i32 0
  %1858 = load i8** %1857, align 8, !tbaa !14
  %1859 = getelementptr inbounds i8* %1858, i64 -24
  %1860 = bitcast i8* %1859 to %"struct.std::basic_string<char, std::char_traits<char>, std::allocator<char> >::_Rep"*
  %1861 = icmp eq i8* %1859, bitcast ([0 x i64]* @_ZNSs4_Rep20_S_empty_rep_storageE to i8*)
  br i1 %1861, label %_ZNSsD1Ev.exit.i249, label %1862, !prof !15

; <label>:1862                                    ; preds = %_ZNSt6vectorI8TestCaseSaIS0_EE9push_backERKS0_.exit246
  %1863 = getelementptr inbounds i8* %1858, i64 -8
  %1864 = bitcast i8* %1863 to i32*
  br i1 icmp ne (i8* bitcast (i32 (i32*, void (i8*)*)* @__pthread_key_create to i8*), i8* null), label %1865, label %1869

; <label>:1865                                    ; preds = %1862
  %1866 = bitcast i32* %39 to i8*
  call void @llvm.lifetime.start(i64 4, i8* %1866)
  %1867 = atomicrmw volatile add i32* %1864, i32 -1 acq_rel
  store i32 %1867, i32* %39, align 4
  %1868 = load volatile i32* %39, align 4
  call void @llvm.lifetime.end(i64 4, i8* %1866)
  br label %_ZN9__gnu_cxxL27__exchange_and_add_dispatchEPii.exit.i.i.i.i248

; <label>:1869                                    ; preds = %1862
  %1870 = load i32* %1864, align 4, !tbaa !16
  %1871 = add nsw i32 %1870, -1
  store i32 %1871, i32* %1864, align 4, !tbaa !16
  br label %_ZN9__gnu_cxxL27__exchange_and_add_dispatchEPii.exit.i.i.i.i248

_ZN9__gnu_cxxL27__exchange_and_add_dispatchEPii.exit.i.i.i.i248: ; preds = %1869, %1865
  %.0.i.i.i.i.i247 = phi i32 [ %1868, %1865 ], [ %1870, %1869 ]
  %1872 = icmp slt i32 %.0.i.i.i.i.i247, 1
  br i1 %1872, label %1873, label %_ZNSsD1Ev.exit.i249

; <label>:1873                                    ; preds = %_ZN9__gnu_cxxL27__exchange_and_add_dispatchEPii.exit.i.i.i.i248
  call void @_ZNSs4_Rep10_M_destroyERKSaIcE(%"struct.std::basic_string<char, std::char_traits<char>, std::allocator<char> >::_Rep"* %1860, %"class.std::allocator.0"* %40) #1
  br label %_ZNSsD1Ev.exit.i249

_ZNSsD1Ev.exit.i249:                              ; preds = %1873, %_ZN9__gnu_cxxL27__exchange_and_add_dispatchEPii.exit.i.i.i.i248, %_ZNSt6vectorI8TestCaseSaIS0_EE9push_backERKS0_.exit246
  call void @llvm.lifetime.end(i64 1, i8* %1856) #1
  %1874 = getelementptr inbounds %"class.std::allocator.0"* %38, i64 0, i32 0
  call void @llvm.lifetime.start(i64 1, i8* %1874) #1
  %1875 = getelementptr inbounds %class.TestCase* %262, i64 0, i32 0, i32 0, i32 0
  %1876 = load i8** %1875, align 8, !tbaa !14
  %1877 = getelementptr inbounds i8* %1876, i64 -24
  %1878 = bitcast i8* %1877 to %"struct.std::basic_string<char, std::char_traits<char>, std::allocator<char> >::_Rep"*
  %1879 = icmp eq i8* %1877, bitcast ([0 x i64]* @_ZNSs4_Rep20_S_empty_rep_storageE to i8*)
  br i1 %1879, label %_ZN8TestCaseD2Ev.exit252, label %1880, !prof !15

; <label>:1880                                    ; preds = %_ZNSsD1Ev.exit.i249
  %1881 = getelementptr inbounds i8* %1876, i64 -8
  %1882 = bitcast i8* %1881 to i32*
  br i1 icmp ne (i8* bitcast (i32 (i32*, void (i8*)*)* @__pthread_key_create to i8*), i8* null), label %1883, label %1887

; <label>:1883                                    ; preds = %1880
  %1884 = bitcast i32* %37 to i8*
  call void @llvm.lifetime.start(i64 4, i8* %1884)
  %1885 = atomicrmw volatile add i32* %1882, i32 -1 acq_rel
  store i32 %1885, i32* %37, align 4
  %1886 = load volatile i32* %37, align 4
  call void @llvm.lifetime.end(i64 4, i8* %1884)
  br label %_ZN9__gnu_cxxL27__exchange_and_add_dispatchEPii.exit.i.i.i2.i251

; <label>:1887                                    ; preds = %1880
  %1888 = load i32* %1882, align 4, !tbaa !16
  %1889 = add nsw i32 %1888, -1
  store i32 %1889, i32* %1882, align 4, !tbaa !16
  br label %_ZN9__gnu_cxxL27__exchange_and_add_dispatchEPii.exit.i.i.i2.i251

_ZN9__gnu_cxxL27__exchange_and_add_dispatchEPii.exit.i.i.i2.i251: ; preds = %1887, %1883
  %.0.i.i.i.i1.i250 = phi i32 [ %1886, %1883 ], [ %1888, %1887 ]
  %1890 = icmp slt i32 %.0.i.i.i.i1.i250, 1
  br i1 %1890, label %1891, label %_ZN8TestCaseD2Ev.exit252

; <label>:1891                                    ; preds = %_ZN9__gnu_cxxL27__exchange_and_add_dispatchEPii.exit.i.i.i2.i251
  call void @_ZNSs4_Rep10_M_destroyERKSaIcE(%"struct.std::basic_string<char, std::char_traits<char>, std::allocator<char> >::_Rep"* %1878, %"class.std::allocator.0"* %38) #1
  br label %_ZN8TestCaseD2Ev.exit252

_ZN8TestCaseD2Ev.exit252:                         ; preds = %1891, %_ZN9__gnu_cxxL27__exchange_and_add_dispatchEPii.exit.i.i.i2.i251, %_ZNSsD1Ev.exit.i249
  call void @llvm.lifetime.end(i64 1, i8* %1874) #1
  %1892 = getelementptr inbounds %"class.std::allocator.0"* %36, i64 0, i32 0
  call void @llvm.lifetime.start(i64 1, i8* %1892) #1
  %1893 = getelementptr inbounds %"class.std::basic_string"* %265, i64 0, i32 0, i32 0
  %1894 = load i8** %1893, align 8, !tbaa !14
  %1895 = getelementptr inbounds i8* %1894, i64 -24
  %1896 = bitcast i8* %1895 to %"struct.std::basic_string<char, std::char_traits<char>, std::allocator<char> >::_Rep"*
  %1897 = icmp eq i8* %1895, bitcast ([0 x i64]* @_ZNSs4_Rep20_S_empty_rep_storageE to i8*)
  br i1 %1897, label %_ZNSsD1Ev.exit255, label %1898, !prof !15

; <label>:1898                                    ; preds = %_ZN8TestCaseD2Ev.exit252
  %1899 = getelementptr inbounds i8* %1894, i64 -8
  %1900 = bitcast i8* %1899 to i32*
  br i1 icmp ne (i8* bitcast (i32 (i32*, void (i8*)*)* @__pthread_key_create to i8*), i8* null), label %1901, label %1905

; <label>:1901                                    ; preds = %1898
  %1902 = bitcast i32* %35 to i8*
  call void @llvm.lifetime.start(i64 4, i8* %1902)
  %1903 = atomicrmw volatile add i32* %1900, i32 -1 acq_rel
  store i32 %1903, i32* %35, align 4
  %1904 = load volatile i32* %35, align 4
  call void @llvm.lifetime.end(i64 4, i8* %1902)
  br label %_ZN9__gnu_cxxL27__exchange_and_add_dispatchEPii.exit.i.i.i254

; <label>:1905                                    ; preds = %1898
  %1906 = load i32* %1900, align 4, !tbaa !16
  %1907 = add nsw i32 %1906, -1
  store i32 %1907, i32* %1900, align 4, !tbaa !16
  br label %_ZN9__gnu_cxxL27__exchange_and_add_dispatchEPii.exit.i.i.i254

_ZN9__gnu_cxxL27__exchange_and_add_dispatchEPii.exit.i.i.i254: ; preds = %1905, %1901
  %.0.i.i.i.i253 = phi i32 [ %1904, %1901 ], [ %1906, %1905 ]
  %1908 = icmp slt i32 %.0.i.i.i.i253, 1
  br i1 %1908, label %1909, label %_ZNSsD1Ev.exit255

; <label>:1909                                    ; preds = %_ZN9__gnu_cxxL27__exchange_and_add_dispatchEPii.exit.i.i.i254
  call void @_ZNSs4_Rep10_M_destroyERKSaIcE(%"struct.std::basic_string<char, std::char_traits<char>, std::allocator<char> >::_Rep"* %1896, %"class.std::allocator.0"* %36) #1
  br label %_ZNSsD1Ev.exit255

_ZNSsD1Ev.exit255:                                ; preds = %1909, %_ZN9__gnu_cxxL27__exchange_and_add_dispatchEPii.exit.i.i.i254, %_ZN8TestCaseD2Ev.exit252
  call void @llvm.lifetime.end(i64 1, i8* %1892) #1
  %1910 = getelementptr inbounds %"class.std::allocator.0"* %34, i64 0, i32 0
  call void @llvm.lifetime.start(i64 1, i8* %1910) #1
  %1911 = getelementptr inbounds %"class.std::basic_string"* %263, i64 0, i32 0, i32 0
  %1912 = load i8** %1911, align 8, !tbaa !14
  %1913 = getelementptr inbounds i8* %1912, i64 -24
  %1914 = bitcast i8* %1913 to %"struct.std::basic_string<char, std::char_traits<char>, std::allocator<char> >::_Rep"*
  %1915 = icmp eq i8* %1913, bitcast ([0 x i64]* @_ZNSs4_Rep20_S_empty_rep_storageE to i8*)
  br i1 %1915, label %_ZNSsD1Ev.exit258, label %1916, !prof !15

; <label>:1916                                    ; preds = %_ZNSsD1Ev.exit255
  %1917 = getelementptr inbounds i8* %1912, i64 -8
  %1918 = bitcast i8* %1917 to i32*
  br i1 icmp ne (i8* bitcast (i32 (i32*, void (i8*)*)* @__pthread_key_create to i8*), i8* null), label %1919, label %1923

; <label>:1919                                    ; preds = %1916
  %1920 = bitcast i32* %33 to i8*
  call void @llvm.lifetime.start(i64 4, i8* %1920)
  %1921 = atomicrmw volatile add i32* %1918, i32 -1 acq_rel
  store i32 %1921, i32* %33, align 4
  %1922 = load volatile i32* %33, align 4
  call void @llvm.lifetime.end(i64 4, i8* %1920)
  br label %_ZN9__gnu_cxxL27__exchange_and_add_dispatchEPii.exit.i.i.i257

; <label>:1923                                    ; preds = %1916
  %1924 = load i32* %1918, align 4, !tbaa !16
  %1925 = add nsw i32 %1924, -1
  store i32 %1925, i32* %1918, align 4, !tbaa !16
  br label %_ZN9__gnu_cxxL27__exchange_and_add_dispatchEPii.exit.i.i.i257

_ZN9__gnu_cxxL27__exchange_and_add_dispatchEPii.exit.i.i.i257: ; preds = %1923, %1919
  %.0.i.i.i.i256 = phi i32 [ %1922, %1919 ], [ %1924, %1923 ]
  %1926 = icmp slt i32 %.0.i.i.i.i256, 1
  br i1 %1926, label %1927, label %_ZNSsD1Ev.exit258

; <label>:1927                                    ; preds = %_ZN9__gnu_cxxL27__exchange_and_add_dispatchEPii.exit.i.i.i257
  call void @_ZNSs4_Rep10_M_destroyERKSaIcE(%"struct.std::basic_string<char, std::char_traits<char>, std::allocator<char> >::_Rep"* %1914, %"class.std::allocator.0"* %34) #1
  br label %_ZNSsD1Ev.exit258

_ZNSsD1Ev.exit258:                                ; preds = %1927, %_ZN9__gnu_cxxL27__exchange_and_add_dispatchEPii.exit.i.i.i257, %_ZNSsD1Ev.exit255
  call void @llvm.lifetime.end(i64 1, i8* %1910) #1
  call void @_ZNSsC1EPKcRKSaIcE(%"class.std::basic_string"* %268, i8* getelementptr inbounds ([9 x i8]* @.str19, i64 0, i64 0), %"class.std::allocator.0"* %269) #1
  call void @_ZNSsC1EPKcRKSaIcE(%"class.std::basic_string"* %270, i8* getelementptr inbounds ([13 x i8]* @.str17, i64 0, i64 0), %"class.std::allocator.0"* %271) #1
  %1928 = getelementptr inbounds %class.TestCase* %267, i64 0, i32 0
  call void @_ZNSsC1ERKSs(%"class.std::basic_string"* %1928, %"class.std::basic_string"* %268) #1
  %1929 = getelementptr inbounds %class.TestCase* %267, i64 0, i32 1
  call void @_ZNSsC1ERKSs(%"class.std::basic_string"* %1929, %"class.std::basic_string"* %270) #1
  %1930 = getelementptr inbounds %class.TestCase* %267, i64 0, i32 2
  store i32 4, i32* %1930, align 8, !tbaa !1
  %1931 = getelementptr inbounds %class.TestCase* %267, i64 0, i32 3
  store i32 0, i32* %1931, align 4, !tbaa !9
  %1932 = load %class.TestCase** %292, align 8, !tbaa !10
  %1933 = load %class.TestCase** %294, align 8, !tbaa !13
  %1934 = icmp eq %class.TestCase* %1932, %1933
  br i1 %1934, label %1946, label %1935

; <label>:1935                                    ; preds = %_ZNSsD1Ev.exit258
  %1936 = icmp eq %class.TestCase* %1932, null
  br i1 %1936, label %_ZN9__gnu_cxx14__alloc_traitsISaI8TestCaseEE9constructIS1_EEvRS2_PS1_RKT_.exit.i260, label %1937

; <label>:1937                                    ; preds = %1935
  %1938 = getelementptr inbounds %class.TestCase* %1932, i64 0, i32 0
  call void @_ZNSsC1ERKSs(%"class.std::basic_string"* %1938, %"class.std::basic_string"* %1928) #1
  %1939 = getelementptr inbounds %class.TestCase* %1932, i64 0, i32 1
  call void @_ZNSsC1ERKSs(%"class.std::basic_string"* %1939, %"class.std::basic_string"* %1929) #1
  %1940 = getelementptr inbounds %class.TestCase* %1932, i64 0, i32 2
  %1941 = bitcast i32* %1930 to i64*
  %1942 = bitcast i32* %1940 to i64*
  %1943 = load i64* %1941, align 8
  store i64 %1943, i64* %1942, align 4
  %.pre.i259 = load %class.TestCase** %292, align 8, !tbaa !10
  br label %_ZN9__gnu_cxx14__alloc_traitsISaI8TestCaseEE9constructIS1_EEvRS2_PS1_RKT_.exit.i260

_ZN9__gnu_cxx14__alloc_traitsISaI8TestCaseEE9constructIS1_EEvRS2_PS1_RKT_.exit.i260: ; preds = %1937, %1935
  %1944 = phi %class.TestCase* [ null, %1935 ], [ %.pre.i259, %1937 ]
  %1945 = getelementptr inbounds %class.TestCase* %1944, i64 1
  store %class.TestCase* %1945, %class.TestCase** %292, align 8, !tbaa !10
  br label %_ZNSt6vectorI8TestCaseSaIS0_EE9push_backERKS0_.exit261

; <label>:1946                                    ; preds = %_ZNSsD1Ev.exit258
  call void @_ZNSt6vectorI8TestCaseSaIS0_EE13_M_insert_auxEN9__gnu_cxx17__normal_iteratorIPS0_S2_EERKS0_(%"class.std::vector"* %testCases, %class.TestCase* %1932, %class.TestCase* %267) #1
  br label %_ZNSt6vectorI8TestCaseSaIS0_EE9push_backERKS0_.exit261

_ZNSt6vectorI8TestCaseSaIS0_EE9push_backERKS0_.exit261: ; preds = %1946, %_ZN9__gnu_cxx14__alloc_traitsISaI8TestCaseEE9constructIS1_EEvRS2_PS1_RKT_.exit.i260
  %1947 = getelementptr inbounds %"class.std::allocator.0"* %32, i64 0, i32 0
  call void @llvm.lifetime.start(i64 1, i8* %1947) #1
  %1948 = getelementptr inbounds %class.TestCase* %267, i64 0, i32 1, i32 0, i32 0
  %1949 = load i8** %1948, align 8, !tbaa !14
  %1950 = getelementptr inbounds i8* %1949, i64 -24
  %1951 = bitcast i8* %1950 to %"struct.std::basic_string<char, std::char_traits<char>, std::allocator<char> >::_Rep"*
  %1952 = icmp eq i8* %1950, bitcast ([0 x i64]* @_ZNSs4_Rep20_S_empty_rep_storageE to i8*)
  br i1 %1952, label %_ZNSsD1Ev.exit.i264, label %1953, !prof !15

; <label>:1953                                    ; preds = %_ZNSt6vectorI8TestCaseSaIS0_EE9push_backERKS0_.exit261
  %1954 = getelementptr inbounds i8* %1949, i64 -8
  %1955 = bitcast i8* %1954 to i32*
  br i1 icmp ne (i8* bitcast (i32 (i32*, void (i8*)*)* @__pthread_key_create to i8*), i8* null), label %1956, label %1960

; <label>:1956                                    ; preds = %1953
  %1957 = bitcast i32* %31 to i8*
  call void @llvm.lifetime.start(i64 4, i8* %1957)
  %1958 = atomicrmw volatile add i32* %1955, i32 -1 acq_rel
  store i32 %1958, i32* %31, align 4
  %1959 = load volatile i32* %31, align 4
  call void @llvm.lifetime.end(i64 4, i8* %1957)
  br label %_ZN9__gnu_cxxL27__exchange_and_add_dispatchEPii.exit.i.i.i.i263

; <label>:1960                                    ; preds = %1953
  %1961 = load i32* %1955, align 4, !tbaa !16
  %1962 = add nsw i32 %1961, -1
  store i32 %1962, i32* %1955, align 4, !tbaa !16
  br label %_ZN9__gnu_cxxL27__exchange_and_add_dispatchEPii.exit.i.i.i.i263

_ZN9__gnu_cxxL27__exchange_and_add_dispatchEPii.exit.i.i.i.i263: ; preds = %1960, %1956
  %.0.i.i.i.i.i262 = phi i32 [ %1959, %1956 ], [ %1961, %1960 ]
  %1963 = icmp slt i32 %.0.i.i.i.i.i262, 1
  br i1 %1963, label %1964, label %_ZNSsD1Ev.exit.i264

; <label>:1964                                    ; preds = %_ZN9__gnu_cxxL27__exchange_and_add_dispatchEPii.exit.i.i.i.i263
  call void @_ZNSs4_Rep10_M_destroyERKSaIcE(%"struct.std::basic_string<char, std::char_traits<char>, std::allocator<char> >::_Rep"* %1951, %"class.std::allocator.0"* %32) #1
  br label %_ZNSsD1Ev.exit.i264

_ZNSsD1Ev.exit.i264:                              ; preds = %1964, %_ZN9__gnu_cxxL27__exchange_and_add_dispatchEPii.exit.i.i.i.i263, %_ZNSt6vectorI8TestCaseSaIS0_EE9push_backERKS0_.exit261
  call void @llvm.lifetime.end(i64 1, i8* %1947) #1
  %1965 = getelementptr inbounds %"class.std::allocator.0"* %30, i64 0, i32 0
  call void @llvm.lifetime.start(i64 1, i8* %1965) #1
  %1966 = getelementptr inbounds %class.TestCase* %267, i64 0, i32 0, i32 0, i32 0
  %1967 = load i8** %1966, align 8, !tbaa !14
  %1968 = getelementptr inbounds i8* %1967, i64 -24
  %1969 = bitcast i8* %1968 to %"struct.std::basic_string<char, std::char_traits<char>, std::allocator<char> >::_Rep"*
  %1970 = icmp eq i8* %1968, bitcast ([0 x i64]* @_ZNSs4_Rep20_S_empty_rep_storageE to i8*)
  br i1 %1970, label %_ZN8TestCaseD2Ev.exit267, label %1971, !prof !15

; <label>:1971                                    ; preds = %_ZNSsD1Ev.exit.i264
  %1972 = getelementptr inbounds i8* %1967, i64 -8
  %1973 = bitcast i8* %1972 to i32*
  br i1 icmp ne (i8* bitcast (i32 (i32*, void (i8*)*)* @__pthread_key_create to i8*), i8* null), label %1974, label %1978

; <label>:1974                                    ; preds = %1971
  %1975 = bitcast i32* %29 to i8*
  call void @llvm.lifetime.start(i64 4, i8* %1975)
  %1976 = atomicrmw volatile add i32* %1973, i32 -1 acq_rel
  store i32 %1976, i32* %29, align 4
  %1977 = load volatile i32* %29, align 4
  call void @llvm.lifetime.end(i64 4, i8* %1975)
  br label %_ZN9__gnu_cxxL27__exchange_and_add_dispatchEPii.exit.i.i.i2.i266

; <label>:1978                                    ; preds = %1971
  %1979 = load i32* %1973, align 4, !tbaa !16
  %1980 = add nsw i32 %1979, -1
  store i32 %1980, i32* %1973, align 4, !tbaa !16
  br label %_ZN9__gnu_cxxL27__exchange_and_add_dispatchEPii.exit.i.i.i2.i266

_ZN9__gnu_cxxL27__exchange_and_add_dispatchEPii.exit.i.i.i2.i266: ; preds = %1978, %1974
  %.0.i.i.i.i1.i265 = phi i32 [ %1977, %1974 ], [ %1979, %1978 ]
  %1981 = icmp slt i32 %.0.i.i.i.i1.i265, 1
  br i1 %1981, label %1982, label %_ZN8TestCaseD2Ev.exit267

; <label>:1982                                    ; preds = %_ZN9__gnu_cxxL27__exchange_and_add_dispatchEPii.exit.i.i.i2.i266
  call void @_ZNSs4_Rep10_M_destroyERKSaIcE(%"struct.std::basic_string<char, std::char_traits<char>, std::allocator<char> >::_Rep"* %1969, %"class.std::allocator.0"* %30) #1
  br label %_ZN8TestCaseD2Ev.exit267

_ZN8TestCaseD2Ev.exit267:                         ; preds = %1982, %_ZN9__gnu_cxxL27__exchange_and_add_dispatchEPii.exit.i.i.i2.i266, %_ZNSsD1Ev.exit.i264
  call void @llvm.lifetime.end(i64 1, i8* %1965) #1
  %1983 = getelementptr inbounds %"class.std::allocator.0"* %28, i64 0, i32 0
  call void @llvm.lifetime.start(i64 1, i8* %1983) #1
  %1984 = getelementptr inbounds %"class.std::basic_string"* %270, i64 0, i32 0, i32 0
  %1985 = load i8** %1984, align 8, !tbaa !14
  %1986 = getelementptr inbounds i8* %1985, i64 -24
  %1987 = bitcast i8* %1986 to %"struct.std::basic_string<char, std::char_traits<char>, std::allocator<char> >::_Rep"*
  %1988 = icmp eq i8* %1986, bitcast ([0 x i64]* @_ZNSs4_Rep20_S_empty_rep_storageE to i8*)
  br i1 %1988, label %_ZNSsD1Ev.exit270, label %1989, !prof !15

; <label>:1989                                    ; preds = %_ZN8TestCaseD2Ev.exit267
  %1990 = getelementptr inbounds i8* %1985, i64 -8
  %1991 = bitcast i8* %1990 to i32*
  br i1 icmp ne (i8* bitcast (i32 (i32*, void (i8*)*)* @__pthread_key_create to i8*), i8* null), label %1992, label %1996

; <label>:1992                                    ; preds = %1989
  %1993 = bitcast i32* %27 to i8*
  call void @llvm.lifetime.start(i64 4, i8* %1993)
  %1994 = atomicrmw volatile add i32* %1991, i32 -1 acq_rel
  store i32 %1994, i32* %27, align 4
